(dp1
S'articles'
p2
(lp3
(dp4
S'real_url'
p5
Vhttp://www.bbc.co.uk/sport/rugby-union/35771472?ns_mchannel=social&ns_campaign=bbc_sport&ns_source=facebook&ns_linkname=sport
p6
sS'title'
p7
VEngland survive late Welsh onslaught
p8
sS'text'
p9
VEngland will go to Paris next weekend with a Grand Slam in their sights after hanging on against a resurgent Wales to secure the Triple Crown in an epic encounter.\u000aOnly a heavy defeat will deny them a first Six Nations title since 2011 despite a dramatic finale that so nearly cost them dear at Twickenham.\u000aA first-half try from Anthony Watson and three penalties from Owen Farrell established a 16-0 half-time lead as the hosts took control.\u000aA charge-down try from Dan Biggar gave Wales hope but, with Maro Itoje outstanding, Farrell's boot appeared to have calmed any nerves left from the infamous collapse from a similar position in the World Cup last autumn. \u000aTwo tries in four minutes from George North and Talupe Faletau changed all that, and in the final moments North almost powered free again.\u000aBut England escaped, and Eddie Jones' first season in charge may yet end in triumph.\u000aNot since 2003 have England won the Grand Slam, and while they have been hammered in their past two deciding matches, they will start as favourites against a struggling France.\u000aThey could even be crowned Six Nations champions on Sunday, with France needing to beat Scotland at Murrayfield (15:00 GMT) to take the title race to the final weekend.\u000aAnd France will need to beat Scotland and England with a cumulative 59-point swing in order to deny England the title - although a win of any margin in Paris would prevent England from claiming the Grand Slam.\u000aItoje leads the way\u000aEngland had begun at pace, the Welsh defensive line getting stretched and both Mike Brown and George Ford failing to make the most of scything breaks.\u000aFarrell slotted two quick penalties but with Dan Cole held up over the line they could and perhaps should have led by more.\u000aWales were being starved of the ball, Itoje disrupting their line-out and handling errors sucking away their momentum on the rare occasions they did have the ball.\u000aAnd it was Itoje's power with ball in hand that led to the game's first try, the young lock smashing through Biggar and Scott Baldwin before releasing Brown to send Watson in down the left for his 10th try in 19 Tests.\u000aHistory threatens to repeat\u000aWales had missed 19 tackles in the first half and shipped eight penalties, and after Brown and Jack Nowell cut further lines Farrell landed his fourth penalty to make it 19-0.\u000aAt last Warren Gatland's men won some territory, opting for a series of scrums from penalties in front of the posts, but each drive was absorbed by a white wall of defenders.\u000aIt took a pair of mistakes from England's half-backs to open the door - Youngs with a long inaccurate pass, Ford's clearing kick charged down by Biggar and the fly-half diving on the loose ball as it rolled under the posts.\u000aGatland threw on a replacement front row and then Justin Tipuric when his skipper Sam Warburton was carried off on a stretcher, and suddenly it was a different game.\u000aNorth went over in the left corner, only for referee Craig Joubert to rule it out for a questionable knock-on from Jonathan Davies, \u000aJones responded - Danny Care on for Youngs, Manu Tuilagi back in midfield, Farrell in to 10 in place of the struggling Ford.\u000aIt seemed to have worked, only for Wales to strike twice in the last seven minutes and cut the lead from 25-7 to within a single try.\u000aBut North was shoved into touch as he sprinted for the left-hand corner, and a comeback that would have outdone even the victories of last September and 2008 was just about denied.\u000aMan of the match\u000aMaro Itoje was compared to a Vauxhall Viva by his coach at the start of this tournament, and to an Astra after the win over Ireland, but this was a Rolls-Royce of a display from the the young Saracens second row.\u000aWhat the coaches thought\u000aEngland boss Eddie Jones: "We made a number of changes on purpose to test players and to test the strength of the team [later in the game] and maybe those changes didn't work. If you look at our first 60 minutes there was some fantastic rugby. The Grand Slam is a reality and we can't wait to get to Paris and to do the business."\u000aRead more: Grand Slam is on for England - Jones \u000aWales boss Warren Gatland: "I'm very disappointed with the first half. We looked tired and didn't look enthusiastic. I told the players they needed to come up with answers themselves. We wonder what could have been. We outscored them 3-1 in terms of tries but the best team won and I take my hat off to them."\u000aAnd what about the pundits?\u000aFormer England scrum-half Matt Dawson: "The two benches were going to be important and Wales had the better bench. Thankfully, the clock won for England."\u000aFormer Wales fly-half Jonathan Davies: "England choked a bit towards the end and it was a delight to see Wales play a different game and show what they're capable of. England deserved the win, they were the better side for 70 minutes."\u000aEngland: Brown; Watson, Joseph, Farrell, Nowell; Ford, Youngs; Marler, Hartley, Cole, Itoje, Kruis, Robshaw, Haskell, B Vunipola.\u000aReplacements: Tuilagi for Ford (64), Daly for Joseph (74), Care for Youngs (63), M Vunipola for Marler (56), Cowan-Dickie for Hartley (71), Launchbury for Kruis (78), Brookes for Robshaw (71), Clifford for Haskell (67).\u000aSin Bin: Cole (72).\u000aWales: Williams, Cuthbert, J. Davies, Roberts, North, Biggar, G. Davies, Evans, Baldwin, Lee, B. Davies, Jones, Lydiate, Warburton, Faletau.\u000aReplacements: Priestland for Biggar (74), Webb for G. Davies (63), James for Evans (53), Owens for Baldwin (53), Francis for Lee (53), Charteris for Jones (63), Tipuric for Warburton (56).\u000aNot Used: Anscombe.\u000aRef: Craig Joubert (South Africa).\u000a
p10
sS'image_link'
p11
Vhttps://s3.amazonaws.com/prod-cust-photo-posts-jfaikqealaka/3082-8a7796774f29463c53c24878512df526.jpg
p12
sS'alchemy'
p13
(dp14
S'docSentiment'
p15
(dp16
Vmixed
p17
V1
sVscore
p18
V-0.110668
p19
sVtype
p20
Vnegative
p21
ssS'taxonomy'
p22
(lp23
(dp24
Vscore
p25
V0.637226
p26
sVlabel
p27
V/sports/rugby
p28
sa(dp29
Vconfident
p30
Vno
p31
sVscore
p32
V0.308569
p33
sVlabel
p34
V/travel/tourist destinations/france
p35
sa(dp36
Vconfident
p37
Vno
p38
sVscore
p39
V0.26364
p40
sVlabel
p41
V/sports/football
p42
sasS'entities'
p43
(lp44
(dp45
Vrelevance
p46
V0.837255
p47
sVcount
p48
V15
p49
sVtype
p50
VCountry
p51
sVdisambiguated
p52
(dp53
Vwebsite
p54
Vhttp://www.direct.gov.uk/
p55
sVyago
p56
Vhttp://yago-knowledge.org/resource/England
p57
sVgeonames
p58
Vhttp://sws.geonames.org/3333218/
p59
sVfreebase
p60
Vhttp://rdf.freebase.com/ns/m.02jx1
p61
sVopencyc
p62
Vhttp://sw.opencyc.org/concept/Mx4rvViWaZwpEbGdrcN5Y29ycA
p63
sVsubType
p64
(lp65
VLocation
p66
aVPoliticalDistrict
p67
aVAdministrativeDivision
p68
aVGovernmentalJurisdiction
p69
asVdbpedia
p70
Vhttp://dbpedia.org/resource/England
p71
sVname
p72
VEngland
p73
ssVtext
p74
VEngland
p75
sa(dp76
Vrelevance
p77
V0.625039
p78
sVcount
p79
V10
p80
sVtype
p81
VCountry
p82
sVdisambiguated
p83
(dp84
Vwebsite
p85
Vhttp://www.visitwales.com
p86
sVyago
p87
Vhttp://yago-knowledge.org/resource/Wales
p88
sVgeonames
p89
Vhttp://sws.geonames.org/2636718/
p90
sVfreebase
p91
Vhttp://rdf.freebase.com/ns/m.0j5g9
p92
sVopencyc
p93
Vhttp://sw.opencyc.org/concept/Mx4rvVitvJwpEbGdrcN5Y29ycA
p94
sVsubType
p95
(lp96
VLocation
p97
aVAdministrativeDivision
p98
aVGovernmentalJurisdiction
p99
aVFilmScreeningVenue
p100
asVdbpedia
p101
Vhttp://dbpedia.org/resource/Wales
p102
sVname
p103
VWales
p104
ssVtext
p105
VWales
p106
sa(dp107
Vrelevance
p108
V0.546873
p109
sVcount
p110
V6
sVtype
p111
VPerson
p112
sVdisambiguated
p113
(dp114
Vwebsite
p115
Vhttp://www.saracens.com/players/view.php?Id=267
p116
sVsubType
p117
(lp118
sVdbpedia
p119
Vhttp://dbpedia.org/resource/Owen_Farrell
p120
sVname
p121
VOwen Farrell
p122
sVfreebase
p123
Vhttp://rdf.freebase.com/ns/m.03hjhbh
p124
ssVtext
p125
VOwen Farrell
p126
sa(dp127
Vrelevance
p128
V0.506578
p129
sVcount
p130
V6
sVtype
p131
VPerson
p132
sVtext
p133
VEddie Jones
p134
sa(dp135
Vrelevance
p136
V0.500057
p137
sVcount
p138
V5
sVtype
p139
VGeographicFeature
p140
sVtext
p141
VGrand Slam
p142
sa(dp143
Vrelevance
p144
V0.49102
p145
sVcount
p146
V4
sVtype
p147
VPerson
p148
sVdisambiguated
p149
(dp150
VsubType
p151
(lp152
sVdbpedia
p153
Vhttp://dbpedia.org/resource/Dan_Biggar
p154
sVname
p155
VDan Biggar
p156
sVfreebase
p157
Vhttp://rdf.freebase.com/ns/m.04q3qm4
p158
ssVtext
p159
VDan Biggar
p160
sa(dp161
Vrelevance
p162
V0.415642
p163
sVcount
p164
V4
sVtype
p165
VPerson
p166
sVtext
p167
VMaro Itoje
p168
sa(dp169
Vrelevance
p170
V0.365361
p171
sVcount
p172
V4
sVtype
p173
VPerson
p174
sVtext
p175
VYoungs
p176
sa(dp177
Vrelevance
p178
V0.365103
p179
sVcount
p180
V4
sVtype
p181
VCompany
p182
sVdisambiguated
p183
(dp184
Vwebsite
p185
Vhttp://www.ford.com
p186
sVyago
p187
Vhttp://yago-knowledge.org/resource/Ford_Motor_Company
p188
sVname
p189
VFord Motor Company
p190
sVfreebase
p191
Vhttp://rdf.freebase.com/ns/m.02zs4
p192
sVsubType
p193
(lp194
VAutomobileCompany
p195
aVAwardWinner
p196
aVInventor
p197
aVSchoolFounder
p198
asVcrunchbase
p199
Vhttp://www.crunchbase.com/company/ford-motor-company
p200
sVdbpedia
p201
Vhttp://dbpedia.org/resource/Ford_Motor_Company
p202
ssVtext
p203
VFord
p204
sa(dp205
Vrelevance
p206
V0.358405
p207
sVcount
p208
V6
sVtype
p209
VPerson
p210
sVtext
p211
VJonathan Davies
p212
sa(dp213
Vrelevance
p214
V0.347489
p215
sVcount
p216
V3
sVtype
p217
VCity
p218
sVtext
p219
VParis
p220
sa(dp221
Vrelevance
p222
V0.334595
p223
sVcount
p224
V3
sVtype
p225
VPerson
p226
sVtext
p227
VAnthony Watson
p228
sa(dp229
Vrelevance
p230
V0.334096
p231
sVcount
p232
V2
sVtype
p233
VPerson
p234
sVdisambiguated
p235
(dp236
VsubType
p237
(lp238
sVdbpedia
p239
Vhttp://dbpedia.org/resource/Craig_Joubert
p240
sVname
p241
VCraig Joubert
p242
sVfreebase
p243
Vhttp://rdf.freebase.com/ns/m.064ql_b
p244
ssVtext
p245
VCraig Joubert
p246
sa(dp247
Vrelevance
p248
V0.331766
p249
sVcount
p250
V4
sVtype
p251
VPerson
p252
sVtext
p253
VMike Brown
p254
sa(dp255
Vrelevance
p256
V0.329454
p257
sVcount
p258
V3
sVtype
p259
VPerson
p260
sVdisambiguated
p261
(dp262
Vyago
p263
Vhttp://yago-knowledge.org/resource/Warren_Gatland
p264
sVsubType
p265
(lp266
VAthlete
p267
aVRugbyPlayer
p268
asVdbpedia
p269
Vhttp://dbpedia.org/resource/Warren_Gatland
p270
sVname
p271
VWarren Gatland
p272
sVfreebase
p273
Vhttp://rdf.freebase.com/ns/m.06z1tn
p274
ssVtext
p275
VWarren Gatland
p276
sa(dp277
Vrelevance
p278
V0.316545
p279
sVcount
p280
V3
sVtype
p281
VCountry
p282
sVdisambiguated
p283
(dp284
Vwebsite
p285
Vhttp://www.service-public.fr/etranger/english.html
p286
sVyago
p287
Vhttp://yago-knowledge.org/resource/France
p288
sVname
p289
VFrance
p290
sVfreebase
p291
Vhttp://rdf.freebase.com/ns/m.0f8l9c
p292
sVopencyc
p293
Vhttp://sw.opencyc.org/concept/Mx4rvVj6EJwpEbGdrcN5Y29ycA
p294
sVsubType
p295
(lp296
VLocation
p297
aVRegion
p298
aVAdministrativeDivision
p299
aVGovernmentalJurisdiction
p300
aVFilmDirector
p301
asVdbpedia
p302
Vhttp://dbpedia.org/resource/France
p303
sVciaFactbook
p304
Vhttp://www4.wiwiss.fu-berlin.de/factbook/resource/France
p305
sVgeo
p306
V47.0 2.0
p307
ssVtext
p308
VFrance
p309
sa(dp310
Vrelevance
p311
V0.30963
p312
sVcount
p313
V3
sVtype
p314
VPerson
p315
sVdisambiguated
p316
(dp317
VsubType
p318
(lp319
sVdbpedia
p320
Vhttp://dbpedia.org/resource/Dan_Cole_(rugby_union)
p321
sVname
p322
VDan Cole (rugby union)
p323
sVfreebase
p324
Vhttp://rdf.freebase.com/ns/m.03yk8lp
p325
ssVtext
p326
VDan Cole
p327
sa(dp328
Vrelevance
p329
V0.301687
p330
sVcount
p331
V1
sVtype
p332
VPerson
p333
sVdisambiguated
p334
(dp335
Vfreebase
p336
Vhttp://rdf.freebase.com/ns/m.0dlmqtt
p337
sVdbpedia
p338
Vhttp://dbpedia.org/resource/George_North
p339
sVname
p340
VGeorge North
p341
ssVtext
p342
VGeorge North
p343
sa(dp344
Vrelevance
p345
V0.297249
p346
sVcount
p347
V3
sVtype
p348
VPerson
p349
sVdisambiguated
p350
(dp351
VsubType
p352
(lp353
sVdbpedia
p354
Vhttp://dbpedia.org/resource/Sam_Warburton
p355
sVname
p356
VSam Warburton
p357
sVfreebase
p358
Vhttp://rdf.freebase.com/ns/m.05zwvm5
p359
ssVtext
p360
VSam Warburton
p361
sa(dp362
Vrelevance
p363
V0.296628
p364
sVcount
p365
V1
sVtype
p366
VCompany
p367
sVtext
p368
VMaro Itoje
p369
sa(dp370
Vrelevance
p371
V0.282034
p372
sVcount
p373
V2
sVtype
p374
VPerson
p375
sVdisambiguated
p376
(dp377
VsubType
p378
(lp379
sVdbpedia
p380
Vhttp://dbpedia.org/resource/Manu_Tuilagi
p381
sVname
p382
VManu Tuilagi
p383
sVfreebase
p384
Vhttp://rdf.freebase.com/ns/m.04jjd74
p385
ssVtext
p386
VManu Tuilagi
p387
sa(dp388
Vrelevance
p389
V0.279375
p390
sVcount
p391
V2
sVtype
p392
VCountry
p393
sVdisambiguated
p394
(dp395
Vwebsite
p396
Vhttp://www.scotland.org/
p397
sVyago
p398
Vhttp://yago-knowledge.org/resource/Scotland
p399
sVgeonames
p400
Vhttp://sws.geonames.org/2643576/
p401
sVfreebase
p402
Vhttp://rdf.freebase.com/ns/m.01xk6b
p403
sVopencyc
p404
Vhttp://sw.opencyc.org/concept/Mx4rvViIm5wpEbGdrcN5Y29ycA
p405
sVsubType
p406
(lp407
VLocation
p408
aVAdministrativeDivision
p409
aVGovernmentalJurisdiction
p410
asVdbpedia
p411
Vhttp://dbpedia.org/resource/Scotland
p412
sVname
p413
VScotland
p414
ssVtext
p415
VScotland
p416
sa(dp417
Vrelevance
p418
V0.274608
p419
sVcount
p420
V2
sVtype
p421
VPerson
p422
sVdisambiguated
p423
(dp424
Vfreebase
p425
Vhttp://rdf.freebase.com/ns/m.0gvvxr8
p426
sVdbpedia
p427
Vhttp://dbpedia.org/resource/Justin_Tipuric
p428
sVname
p429
VJustin Tipuric
p430
ssVtext
p431
VJustin Tipuric
p432
sa(dp433
Vrelevance
p434
V0.266774
p435
sVcount
p436
V1
sVtype
p437
VGeographicFeature
p438
sVtext
p439
VTalupe Faletau
p440
sa(dp441
Vrelevance
p442
V0.263287
p443
sVcount
p444
V3
sVtype
p445
VPerson
p446
sVtext
p447
VScott Baldwin
p448
sa(dp449
Vrelevance
p450
V0.253988
p451
sVcount
p452
V1
sVtype
p453
VPerson
p454
sVdisambiguated
p455
(dp456
Vfreebase
p457
Vhttp://rdf.freebase.com/ns/m.0cn_kx8
p458
sVdbpedia
p459
Vhttp://dbpedia.org/resource/George_Ford_(rugby_union)
p460
sVname
p461
VGeorge Ford (rugby union)
p462
ssVtext
p463
VGeorge Ford
p464
sa(dp465
Vrelevance
p466
V0.249238
p467
sVcount
p468
V1
sVtype
p469
VSport
p470
sVdisambiguated
p471
(dp472
Vyago
p473
Vhttp://yago-knowledge.org/resource/Rugby_union
p474
sVsubType
p475
(lp476
sVdbpedia
p477
Vhttp://dbpedia.org/resource/Rugby_union
p478
sVname
p479
VRugby union
p480
sVfreebase
p481
Vhttp://rdf.freebase.com/ns/m.06br8
p482
ssVtext
p483
Vrugby
p484
sa(dp485
Vrelevance
p486
V0.248599
p487
sVcount
p488
V2
sVtype
p489
VPerson
p490
sVtext
p491
VJack Nowell
p492
sa(dp493
Vrelevance
p494
V0.237681
p495
sVcount
p496
V1
sVtype
p497
VFieldTerminology
p498
sVtext
p499
VWorld Cup
p500
sa(dp501
Vrelevance
p502
V0.236164
p503
sVcount
p504
V1
sVtype
p505
VOrganization
p506
sVdisambiguated
p507
(dp508
Vwebsite
p509
Vhttp://www.saracens.com/main.php
p510
sVyago
p511
Vhttp://yago-knowledge.org/resource/Saracens_F.C.
p512
sVname
p513
VSaracens F.C.
p514
sVfreebase
p515
Vhttp://rdf.freebase.com/ns/m.02yfml
p516
sVsubType
p517
(lp518
VSportsTeam
p519
aVFootballTeam
p520
asVdbpedia
p521
Vhttp://dbpedia.org/resource/Saracens_F.C.
p522
ssVtext
p523
VSaracens
p524
sasS'docEmotions'
p525
(dp526
Vanger
p527
V0.623376
p528
sVjoy
p529
V0.000128
p530
sVfear
p531
V0.002143
p532
sVsadness
p533
V0.003364
p534
sVdisgust
p535
V0.147491
p536
ssS'concepts'
p537
(lp538
(dp539
Vrelevance
p540
V0.957606
p541
sVtext
p542
VWales national rugby union team
p543
sVyago
p544
Vhttp://yago-knowledge.org/resource/Wales_national_rugby_union_team
p545
sVdbpedia
p546
Vhttp://dbpedia.org/resource/Wales_national_rugby_union_team
p547
sVfreebase
p548
Vhttp://rdf.freebase.com/ns/m.03b3v4
p549
sa(dp550
Vrelevance
p551
V0.394736
p552
sVtext
p553
VWelsh rugby union players
p554
sVdbpedia
p555
Vhttp://dbpedia.org/resource/Welsh_rugby_union_players
p556
sa(dp557
Vrelevance
p558
V0.393717
p559
sVtext
p560
VWales international rugby union players
p561
sVdbpedia
p562
Vhttp://dbpedia.org/resource/Wales_international_rugby_union_players
p563
sa(dp564
Vwebsite
p565
Vhttp://www.unofficialenglandrugby.co.uk
p566
sVyago
p567
Vhttp://yago-knowledge.org/resource/England_national_rugby_union_team
p568
sVtext
p569
VEngland national rugby union team
p570
sVdbpedia
p571
Vhttp://dbpedia.org/resource/England_national_rugby_union_team
p572
sVfreebase
p573
Vhttp://rdf.freebase.com/ns/m.0333v_
p574
sVrelevance
p575
V0.391235
p576
sa(dp577
Vrelevance
p578
V0.351742
p579
sVtext
p580
VIreland national rugby union team
p581
sVyago
p582
Vhttp://yago-knowledge.org/resource/Ireland_national_rugby_union_team
p583
sVdbpedia
p584
Vhttp://dbpedia.org/resource/Ireland_national_rugby_union_team
p585
sVfreebase
p586
Vhttp://rdf.freebase.com/ns/m.03t3zk
p587
sa(dp588
Vwebsite
p589
Vhttp://www.visitwales.com
p590
sVyago
p591
Vhttp://yago-knowledge.org/resource/Wales
p592
sVgeonames
p593
Vhttp://sws.geonames.org/2636718/
p594
sVtext
p595
VWales
p596
sVopencyc
p597
Vhttp://sw.opencyc.org/concept/Mx4rvVitvJwpEbGdrcN5Y29ycA
p598
sVdbpedia
p599
Vhttp://dbpedia.org/resource/Wales
p600
sVfreebase
p601
Vhttp://rdf.freebase.com/ns/m.0j5g9
p602
sVrelevance
p603
V0.323861
p604
sa(dp605
Vrelevance
p606
V0.312756
p607
sVtext
p608
VLeicester Tigers
p609
sVyago
p610
Vhttp://yago-knowledge.org/resource/Leicester_Tigers
p611
sVdbpedia
p612
Vhttp://dbpedia.org/resource/Leicester_Tigers
p613
sVfreebase
p614
Vhttp://rdf.freebase.com/ns/m.01szhj
p615
sa(dp616
Vwebsite
p617
Vhttp://www.nfl.com/rulebook/signals
p618
sVtext
p619
VAmerican football
p620
sVopencyc
p621
Vhttp://sw.opencyc.org/concept/Mx4rwG--HpwpEbGdrcN5Y29ycA
p622
sVdbpedia
p623
Vhttp://dbpedia.org/resource/American_football
p624
sVfreebase
p625
Vhttp://rdf.freebase.com/ns/m.0jm_
p626
sVrelevance
p627
V0.307909
p628
sasS'keywords'
p629
(lp630
(dp631
Vrelevance
p632
V0.958663
p633
sVtext
p634
VGrand Slam
p635
sa(dp636
Vrelevance
p637
V0.779228
p638
sVtext
p639
VEngland
p640
sa(dp641
Vrelevance
p642
V0.727976
p643
sVtext
p644
VMaro Itoje
p645
sa(dp646
Vrelevance
p647
V0.718408
p648
sVtext
p649
Vfinal moments North
p650
sa(dp651
Vrelevance
p652
V0.714136
p653
sVtext
p654
VEngland boss Eddie
p655
sa(dp656
Vrelevance
p657
V0.712127
p658
sVtext
p659
VEngland scrum-half Matt
p660
sa(dp661
Vrelevance
p662
V0.707557
p663
sVtext
p664
VJonathan Davies
p665
sa(dp666
Vrelevance
p667
V0.707238
p668
sVtext
p669
Vfly-half Jonathan Davies
p670
sa(dp671
Vrelevance
p672
V0.704317
p673
sVtext
p674
VEddie Jones
p675
sa(dp676
Vrelevance
p677
V0.702044
p678
sVtext
p679
VCraig Joubert
p680
sa(dp681
Vrelevance
p682
V0.701122
p683
sVtext
p684
Vcumulative 59-point swing
p685
sa(dp686
Vrelevance
p687
V0.696292
p688
sVtext
p689
Vskipper Sam Warburton
p690
sa(dp691
Vrelevance
p692
V0.69381
p693
sVtext
p694
VWarren Gatland
p695
sa(dp696
Vrelevance
p697
V0.693797
p698
sVtext
p699
Vdifferent game
p700
sa(dp701
Vrelevance
p702
V0.693669
p703
sVtext
p704
VWales boss Warren
p705
sa(dp706
Vrelevance
p707
V0.689596
p708
sVtext
p709
VWelsh defensive line
p710
sa(dp711
Vrelevance
p712
V0.688463
p713
sVtext
p714
VG. Davies
p715
sa(dp716
Vrelevance
p717
V0.68814
p718
sVtext
p719
Vreferee Craig Joubert
p720
sa(dp721
Vrelevance
p722
V0.688067
p723
sVtext
p724
Vlong inaccurate pass
p725
sa(dp726
Vrelevance
p727
V0.667104
p728
sVtext
p729
VDan Biggar
p730
sa(dp731
Vrelevance
p732
V0.651825
p733
sVtext
p734
VOwen Farrell
p735
sa(dp736
Vrelevance
p737
V0.651439
p738
sVtext
p739
Vresurgent Wales
p740
sa(dp741
Vrelevance
p742
V0.644044
p743
sVtext
p744
VWales hope
p745
sa(dp746
Vrelevance
p747
V0.639653
p748
sVtext
p749
Vlines Farrell
p750
sa(dp751
Vrelevance
p752
V0.635101
p753
sVtext
p754
Vfirst-half try
p755
sa(dp756
Vrelevance
p757
V0.634509
p758
sVtext
p759
Vcharge-down try
p760
sa(dp761
Vrelevance
p762
V0.633764
p763
sVtext
p764
Vquick penalties
p765
sa(dp766
Vrelevance
p767
V0.624213
p768
sVtext
p769
VGeorge North
p770
sa(dp771
Vrelevance
p772
V0.62384
p773
sVtext
p774
VJ. Davies
p775
sa(dp776
Vrelevance
p777
V0.623598
p778
sVtext
p779
VB. Davies
p780
sassS'oxford'
p781
(lp782
(dp783
VfaceRectangle
p784
(dp785
Vwidth
p786
I41
sVtop
p787
I144
sVleft
p788
I166
sVheight
p789
I41
ssVscores
p790
(dp791
Vsadness
p792
F0.32866410000000001
sVneutral
p793
F0.019425582100000002
sVcontempt
p794
F3.4751505199999998e-05
sVdisgust
p795
F0.0057265119999999996
sVanger
p796
F0.37762000000000001
sVsurprise
p797
F0.0153453723
sVfear
p798
F0.0154569689
sVhappiness
p799
F0.237726718
ssa(dp800
VfaceRectangle
p801
(dp802
Vwidth
p803
I38
sVtop
p804
I126
sVleft
p805
I623
sVheight
p806
I38
ssVscores
p807
(dp808
Vsadness
p809
F0.0120372437
sVneutral
p810
F0.71896863
sVcontempt
p811
F0.00059757666899999998
sVdisgust
p812
F0.00051188269999999998
sVanger
p813
F0.00091384289999999998
sVsurprise
p814
F0.042968913900000003
sVfear
p815
F0.00337125524
sVhappiness
p816
F0.22063063099999999
ssasS'targets'
p817
(dp818
S'love'
p819
I36
sS'angry'
p820
I6
sS'haha'
p821
I7
sS'sad'
p822
I5
sS'likes'
p823
I1452
sS'wow'
p824
I3
ssa(dp825
g5
Vhttp://www.bbc.co.uk/news/magazine-35730298?ocid=socialflow_facebook&ns_mchannel=social&ns_campaign=bbcnews&ns_source=facebook
p826
sg7
V"I was kidnapped by a paedophile I met online"
p827
sg9
VAlicia Kozakiewicz was 13 years old when she slipped out of her home in Pittsburgh to meet someone she had been chatting to online. What followed was a nightmare. Now 27, Alicia has made it her mission to protect other children from what she went through, and has had a law named after her in several US states. This is her story in her own words.\u000aI remember the Christmas of 2001 was really wonderful and so was the first half of New Year's Day 2002.\u000aNew Year has always been a day of celebration for my family. We'd have a big meal - my mum would make pork and sauerkraut - and that year my mum was there, my dad, my brother, his girlfriend and my grandmother, and these are the last moments of my childhood that were peaceful. Where I was just Alicia.\u000aAt some point between dinner and dessert I asked my mother if I could go and lie down. I said I had a stomach ache. \u000aBut what happened was that I got up and slipped past the Christmas tree which was by the front door, and I opened the front door to meet this person that I thought was my friend.  \u000aThis wasn't in my character at all. I was a child that was really scared of the dark and I hated the cold - I still really hate the cold - and I never went outside alone after dark without an adult.\u000aI remember walking up the street just about a block or so and the streets were covered in ice and there was nobody out. What I remember most is the silence. How silencing snow can be. There were no dogs barking, there wasn't anything other than the snow crunching under my feet. I remember standing on the corner and this little voice finally spoke up - my intuition - and said, "Alicia what are you doing? This is really dangerous you need to go home."\u000aI turned around and started walking back, but then I heard my name being called - and the next thing I knew I was in a car with this man, and immediately I feared for my life.\u000aMy childhood up to that point had been an amazing one. For most of my childhood my mum stayed at home, so she was there with me all the time, whenever I needed her, and so was my brother who is nine years older than me.\u000aMy dad worked really long hours but he always left space for family time. So we were - and still are - a very close family. My childhood was filled with so much fun.\u000aRecently I had my old home movies transferred to digital and I've been going through them. Looking back I was just a really happy kid. I thought that people sang like they do in Disney movies, I just thought that was how people lived, so I was always singing to the trees or the rocks or to my shoes because I thought that was how happy people expressed themselves. And I was really saddened to find out that the world was not like a musical where everybody dances and everybody sings.\u000aIt was my older brother who introduced me to the internet. He was always playing games online, I think Diabolo was one of them. I wasn't interested in that particular game, but it did look like a board game and I realised that the internet was a great way to play these games with other people. That's really all I thought it was.\u000aAt that time the internet was really just entering the home and my parents had thought that they had given my brother and me this wonderful gift. They had talked to me about "stranger danger" but there is a difference between a stranger you meet on the street and the stranger you meet online. People online may be strangers at first, but then you learn about them, and soon they seem like friends.\u000aFind out more \u000aAlicia Kozakiewicz spoke to PM on Radio 4. Click here to hear to listen. \u000aIn 2001 and 2002 there were very few people educating children that the internet could be dangerous.\u000aI got a screenname and got online. My friends and I would talk about all sorts of things. It seemed like a time before kids realised that cyber bullying was a possibility and it seemed like everyone got along online. The most popular kids would talk to the less popular kids. I felt safe.\u000aThere was one guy, a boy who I thought was around my own age, that I didn't know, and he was into all the things that I was into. He listened to what I had to say day and night, giving me advice. He was somebody to complain to and to get comforted by over the eight or nine months before my abduction. Online grooming is very effective.\u000aHe was the one I walked out to see on New Year's Day and who kidnapped me in his car.\u000aHe was grabbing my hand so tightly that I thought it was broken and he was barking commands at me. Things like, "Be good, be quiet!" If I didn't obey, he said, he would put me in the trunk.\u000aHe sped off down my street and past my house. I thought, "Maybe he'll just drive around the block." Then, "Maybe he'll just drive to the next neighbourhood." I paid attention to the street signs and they went from being very familiar names to names that I couldn't recall being anywhere near my home.\u000aAfter some time the car reached a toll booth and in my mind I remember thinking, "This is my chance, this is when I'm going to be rescued because this person in the booth is going to see a crying child and think, 'What is going on?' And call the police and this whole thing will be over."\u000aBut the man in the toll booth didn't see me or think that there was anything wrong, and the car sped on.\u000aI remember looking out of the window and seeing the phone boxes and thinking, "What if I could get to one of them, what would I say to my family? How could I get out of this, let them know that I'm in danger?"\u000aThere are no words to explain the fear and terror of thinking this person could pull over and kill me at any moment. He continued to drive for about five hours from my Pittsburgh, Pennsylvania home to Virginia. Finally, the car stopped, he pulled me out of the car and dragged me into this house - and continued to drag me down a flight of stairs that seemed to go on forever in my mind. I'm sure it was a flight or two but it felt like it was an endless maze.\u000aOnce he'd got me into the basement, there was a door with a padlock on it and he took me inside. On the walls were all these devices that my 13-year-old mind just couldn't comprehend.   \u000aHe then removed my clothing and looked at me and said, "This is going to be really hard for you. It's OK, cry." \u000aAfter that he put a locking dog collar around my neck and dragged me upstairs to his bedroom and raped me. He chained me to the floor with this dog collar next to the bed. I was raped and beaten and tortured in that house for four days.\u000aI have to tell you that it's amazing the response I get sometimes when I say that. Sometimes people say, "You're so lucky, that's not that long." They really have said that. I want to make it clear that you cannot define pain by time, or what happened, it's how the experience affects the person. It's how it impacted them. Whether you're held captive for four days or abused by somebody you love for years, or molested for 15 seconds on a bus, it's your experience and your pain that defines it, not the length of time and not what actually occurred.\u000aWhile I did what I could to survive, no matter how humiliating or painful or disgusting, I had no control over my fate. When I did fight him I ended up with a broken nose. And he'd already kidnapped a child, he'd already done unspeakable things to me, why would murder be something that he couldn't do?\u000aOn the fourth day he said: "I'm beginning to like you too much. Tonight we're going to go for a ride." I knew in that moment there was nothing I could do. I knew he was going to kill me. That day he also fed me for the first time in four days and he left for work.\u000aI remember crying and praying, really praying  and I thought about all the things I would do if I were stronger, if I were a character in a superhero movie. I thought, "He's going to kill me, but I'm not going to go down without a fight and maybe I could win?" But then I realised that I'd already lost many times. I soon lost all hope.\u000aI thought about my parents a lot over those days. I knew that they were looking for me and that they loved me. I had no doubt in my mind that they would find me. They could move mountains, and they would do anything to keep me safe. I knew they wouldn't stop until they found me. The question was whether they would find me alive, or dead. I thought: "When was the last time that I told them I loved them? Did they know how much I loved them?"\u000aI started to accept my own death. I drifted into a dazed sort of state. But then I heard the sound of angry men banging on the door downstairs. Because I'd lost all hope I thought they were there to kill me, so I rolled underneath the bed to try to hide from them and stayed as quiet as possible. I heard them moving very quickly around the house. I also heard them shout, "Clear! Clear! Clear! Clear!" Now, I would know exactly what that meant but at that time I had no idea.\u000aI must have made some noise because I heard a man say, "Movement over there!" I saw boots come along the side of the bed. A man ordered me to crawl out from beneath the bed and to put my hands up. I remember dragging that cold, heavy chain out, and trying to put my hands up but also trying to cover myself at the same time. I had no clothing on. I was staring down the barrel of a gun. \u000aI thought, "This is when I'm going to die. This is it." Then the man turned around and I saw FBI on the back of his jacket, and all of these law enforcement agents rushed into the room. They cut the chain from around my neck and helped me up. They set me free. They gave me a second chance at life. These men and women, they are my angels.\u000aWhile I was held captive, my kidnapper broadcast himself abusing me online. One of the viewers recognised the little girl in this horrible video as the little girl from the missing posters. It is important to note, that the greater majority of children are rescued due to missing posters and alerts released on the internet, radio, TV, highway signs, digital billboards, mobile phones and so on. \u000aIf you come across a missing person flyer, please pay attention. \u000aThe viewer went to a phone box, called the FBI, and gave them the screenname of the abuser. Through this, the FBI found his IP address which led to me. It was a miracle. Essentially, one monster came forward about another. I'm so lucky. Had those law enforcement officers stopped for coffee, or had their car broken down, I might not be here with you now. He was due to arrive back to his house at 4.30pm and the law enforcement arrived at 4.10pm. This is the perfect example why, when a child is missing, every single second counts. \u000aEven today, people are shocked when they hear a story like mine. In 2002, when I was kidnapped, it seemed impossible for them to understand how this happened and that I was groomed. Simply, they blamed the victim, which sadly, is not much different from sexual assault cases of present day. However, there were those that were supportive and I hope they know how much I appreciate their care and concern.\u000aMy family and I vowed that we would make a difference and help to save other children and families. We realised that a factor of this ordeal was that no internet safety education was being taught in schools. After my own period of healing, at the age of 14, I began going into schools, giving presentations, and sharing my story. Today, nearly 14 years later, I am continuing my mission, sharing my story with people around the globe, and advising families on internet safety. \u000aAdditionally, I work alongside Protect to secure the passage of, Alicia's Law, named after me, in all 50 states of the US. Due to a lack of dedicated federal resources, less than 2% of known child exploitation cases are being investigated. Alicia's Law provides a dedicated steady stream of state-specific funding to the Internet Crimes Against Children (ICAC) Task Forces. By creating this new revenue stream, Alicia's Law builds permanent capacity for child rescue teams - revenue that will not fall victim to yearly fights over or cuts to the general budget.\u000aAlicia's Law has been passed in Virginia, California, Idaho, Kentucky, Texas, Tennessee, Arizona, Hawaii, and Washington. We are currently working on Alicia's Law in Wisconsin, Maryland, and South Carolina.\u000aI am now working on a masters degree in forensic psychology and am graduating in just a few months (yay!). I plan to work with children and their families who have been affected by abduction or child sexual exploitation. \u000aFor years I struggled with personal relationships. The most loving gentle touches could suddenly seem evil and full of harm. But, the day after I graduate I am getting married (bigger yay!). My fiance supports my mission and he is a great guy but above all he is a great friend.\u000aWhat is really important to remember, and took a long time for me to learn, is that rape is all about power and control, and love never is.\u000aIn 2003 Alicia Kozakiewicz's kidnapper, Scott Tyree, pleaded guilty to taking a minor across state lines for the purpose of sex and producing sexually explicit images. He was sentenced to 19 years and seven months in prison.\u000aSubscribe to the BBC News Magazine's email newsletter  to get articles sent to your inbox.\u000a
p828
sg11
Vhttps://s3.amazonaws.com/prod-cust-photo-posts-jfaikqealaka/3065-55184dfc661ac1721a0c715326298c54.jpg
p829
sg13
(dp830
g15
(dp831
Vmixed
p832
V1
sVscore
p833
V-0.163556
p834
sVtype
p835
Vnegative
p836
ssg22
(lp837
(dp838
Vscore
p839
V0.50052
p840
sVlabel
p841
V/family and parenting/children
p842
sa(dp843
Vconfident
p844
Vno
p845
sVscore
p846
V0.39117
p847
sVlabel
p848
V/art and entertainment/movies and tv/movies
p849
sa(dp850
Vconfident
p851
Vno
p852
sVscore
p853
V0.354998
p854
sVlabel
p855
V/automotive and vehicles/cars
p856
sasg43
(lp857
(dp858
Vrelevance
p859
V0.795027
p860
sVcount
p861
V11
p862
sVtype
p863
VPerson
p864
sVtext
p865
VAlicia Kozakiewicz
p866
sa(dp867
Vrelevance
p868
V0.482011
p869
sVcount
p870
V5
sVtype
p871
VFieldTerminology
p872
sVtext
p873
Vthe house
p874
sa(dp875
Vrelevance
p876
V0.399852
p877
sVcount
p878
V2
sVtype
p879
VCountry
p880
sVdisambiguated
p881
(dp882
Vwebsite
p883
Vhttp://www.usa.gov/
p884
sVyago
p885
Vhttp://yago-knowledge.org/resource/United_States
p886
sVname
p887
VUnited States
p888
sVfreebase
p889
Vhttp://rdf.freebase.com/ns/m.09c7w0
p890
sVopencyc
p891
Vhttp://sw.opencyc.org/concept/Mx4rvVikKpwpEbGdrcN5Y29ycA
p892
sVsubType
p893
(lp894
VLocation
p895
aVRegion
p896
aVAdministrativeDivision
p897
aVGovernmentalJurisdiction
p898
aVFilmEditor
p899
asVdbpedia
p900
Vhttp://dbpedia.org/resource/United_States
p901
sVciaFactbook
p902
Vhttp://www4.wiwiss.fu-berlin.de/factbook/resource/United_States
p903
ssVtext
p904
VUS
p905
sa(dp906
Vrelevance
p907
V0.39984
p908
sVcount
p909
V2
sVtype
p910
VHoliday
p911
sVtext
p912
VNew Year's Day
p913
sa(dp914
Vrelevance
p915
V0.379551
p916
sVcount
p917
V2
sVtype
p918
VCity
p919
sVdisambiguated
p920
(dp921
Vwebsite
p922
Vhttp://www.city.pittsburgh.pa.us/
p923
sVfreebase
p924
Vhttp://rdf.freebase.com/ns/m.068p2
p925
sVdbpedia
p926
Vhttp://dbpedia.org/resource/Pittsburgh
p927
sVname
p928
VPittsburgh
p929
ssVtext
p930
VPittsburgh
p931
sa(dp932
Vrelevance
p933
V0.357887
p934
sVcount
p935
V1
sVtype
p936
VHoliday
p937
sVdisambiguated
p938
(dp939
Vyago
p940
Vhttp://yago-knowledge.org/resource/Christmas
p941
sVname
p942
VChristmas
p943
sVfreebase
p944
Vhttp://rdf.freebase.com/ns/m.01vq3
p945
sVopencyc
p946
Vhttp://sw.opencyc.org/concept/Mx4rwPfXpZwpEbGdrcN5Y29ycA
p947
sVsubType
p948
(lp949
sVdbpedia
p950
Vhttp://dbpedia.org/resource/Christmas
p951
ssVtext
p952
VChristmas
p953
sa(dp954
Vrelevance
p955
V0.352836
p956
sVcount
p957
V1
sVtype
p958
VHealthCondition
p959
sVtext
p960
Vstomach ache
p961
sa(dp962
Vrelevance
p963
V0.338845
p964
sVcount
p965
V1
sVtype
p966
VHoliday
p967
sVtext
p968
VNew Year
p969
sa(dp970
Vrelevance
p971
V0.336463
p972
sVcount
p973
V1
sVtype
p974
VCompany
p975
sVdisambiguated
p976
(dp977
Vwebsite
p978
Vhttp://www.disney.com
p979
sVyago
p980
Vhttp://yago-knowledge.org/resource/The_Walt_Disney_Company
p981
sVname
p982
VThe Walt Disney Company
p983
sVfreebase
p984
Vhttp://rdf.freebase.com/ns/m.09b3v
p985
sVcrunchbase
p986
Vhttp://www.crunchbase.com/company/the-walt-disney-company
p987
sVdbpedia
p988
Vhttp://dbpedia.org/resource/The_Walt_Disney_Company
p989
ssVtext
p990
VDisney
p991
sa(dp992
Vrelevance
p993
V0.333544
p994
sVcount
p995
V2
sVtype
p996
VStateOrCounty
p997
sVdisambiguated
p998
(dp999
Vwebsite
p1000
Vhttp://www.virginia.gov
p1001
sVyago
p1002
Vhttp://yago-knowledge.org/resource/Virginia
p1003
sVname
p1004
VVirginia
p1005
sVfreebase
p1006
Vhttp://rdf.freebase.com/ns/m.0f2wcp
p1007
sVopencyc
p1008
Vhttp://sw.opencyc.org/concept/Mx4rvViztZwpEbGdrcN5Y29ycA
p1009
sVsubType
p1010
(lp1011
VLocation
p1012
aVPoliticalDistrict
p1013
aVAdministrativeDivision
p1014
aVGovernmentalJurisdiction
p1015
aVUSState
p1016
asVdbpedia
p1017
Vhttp://dbpedia.org/resource/Virginia
p1018
ssVtext
p1019
VVirginia
p1020
sa(dp1021
Vrelevance
p1022
V0.320042
p1023
sVcount
p1024
V2
sVtype
p1025
VOrganization
p1026
sVdisambiguated
p1027
(dp1028
Vwebsite
p1029
Vhttp://www.fbi.gov
p1030
sVyago
p1031
Vhttp://yago-knowledge.org/resource/Federal_Bureau_of_Investigation
p1032
sVname
p1033
VFederal Bureau of Investigation
p1034
sVfreebase
p1035
Vhttp://rdf.freebase.com/ns/m.02_1m
p1036
sVopencyc
p1037
Vhttp://sw.opencyc.org/concept/Mx4rvWJE0JwpEbGdrcN5Y29ycA
p1038
sVsubType
p1039
(lp1040
VGovernmentAgency
p1041
aVGovernmentalBody
p1042
asVdbpedia
p1043
Vhttp://dbpedia.org/resource/Federal_Bureau_of_Investigation
p1044
sVgeo
p1045
V38.894465 -77.024503
p1046
ssVtext
p1047
VFBI
p1048
sa(dp1049
Vrelevance
p1050
V0.302573
p1051
sVcount
p1052
V1
sVtype
p1053
VOrganization
p1054
sVdisambiguated
p1055
(dp1056
Vwebsite
p1057
Vhttp://www.fbiradio.com/
p1058
sVsubType
p1059
(lp1060
VBroadcast
p1061
aVRadioStation
p1062
asVdbpedia
p1063
Vhttp://dbpedia.org/resource/FBi_Radio
p1064
sVname
p1065
VFBi Radio
p1066
sVfreebase
p1067
Vhttp://rdf.freebase.com/ns/m.04fg83
p1068
ssVtext
p1069
VFBI
p1070
sa(dp1071
Vrelevance
p1072
V0.299151
p1073
sVcount
p1074
V1
sVtype
p1075
VFieldTerminology
p1076
sVtext
p1077
Vcyber bullying
p1078
sa(dp1079
Vrelevance
p1080
V0.299142
p1081
sVcount
p1082
V1
sVtype
p1083
VOrganization
p1084
sVdisambiguated
p1085
(dp1086
Vwebsite
p1087
Vhttp://www.icac.org/
p1088
sVsubType
p1089
(lp1090
sVdbpedia
p1091
Vhttp://dbpedia.org/resource/International_Cotton_Advisory_Committee
p1092
sVname
p1093
VInternational Cotton Advisory Committee
p1094
sVfreebase
p1095
Vhttp://rdf.freebase.com/ns/m.04zw4m0
p1096
ssVtext
p1097
VICAC
p1098
sa(dp1099
Vrelevance
p1100
V0.296062
p1101
sVcount
p1102
V1
sVtype
p1103
VPrintMedia
p1104
sVtext
p1105
VBBC News Magazine
p1106
sa(dp1107
Vrelevance
p1108
V0.284754
p1109
sVcount
p1110
V1
sVtype
p1111
VFieldTerminology
p1112
sVtext
p1113
Vlaw enforcement officers
p1114
sa(dp1115
Vrelevance
p1116
V0.284489
p1117
sVcount
p1118
V1
sVtype
p1119
VCrime
p1120
sVtext
p1121
Vrape
p1122
sa(dp1123
Vrelevance
p1124
V0.280454
p1125
sVcount
p1126
V1
sVtype
p1127
VCrime
p1128
sVtext
p1129
Vmurder
p1130
sa(dp1131
Vrelevance
p1132
V0.278675
p1133
sVcount
p1134
V1
sVtype
p1135
VCity
p1136
sVdisambiguated
p1137
(dp1138
Vwebsite
p1139
Vhttp://www.dc.gov/
p1140
sVyago
p1141
Vhttp://yago-knowledge.org/resource/Washington,_D.C.
p1142
sVname
p1143
VWashington, D.C.
p1144
sVfreebase
p1145
Vhttp://rdf.freebase.com/ns/m.0rh6k
p1146
sVopencyc
p1147
Vhttp://sw.opencyc.org/concept/Mx4rvpFXOpwpEbGdrcN5Y29ycA
p1148
sVsubType
p1149
(lp1150
VAdministrativeDivision
p1151
aVGovernmentalJurisdiction
p1152
aVMilitaryPost
p1153
aVPlaceWithNeighborhoods
p1154
aVUSCounty
p1155
asVdbpedia
p1156
Vhttp://dbpedia.org/resource/Washington,_D.C.
p1157
ssVtext
p1158
VWashington
p1159
sa(dp1160
Vrelevance
p1161
V0.270791
p1162
sVcount
p1163
V1
sVtype
p1164
VFieldTerminology
p1165
sVtext
p1166
Vlaw enforcement agents
p1167
sa(dp1168
Vrelevance
p1169
V0.269435
p1170
sVcount
p1171
V1
sVtype
p1172
VFieldTerminology
p1173
sVtext
p1174
Vmobile phones
p1175
sa(dp1176
Vrelevance
p1177
V0.269038
p1178
sVcount
p1179
V1
sVtype
p1180
VStateOrCounty
p1181
sVdisambiguated
p1182
(dp1183
Vwebsite
p1184
Vhttp://www.wisconsin.gov
p1185
sVyago
p1186
Vhttp://yago-knowledge.org/resource/Wisconsin
p1187
sVname
p1188
VWisconsin
p1189
sVfreebase
p1190
Vhttp://rdf.freebase.com/ns/m.0824r
p1191
sVopencyc
p1192
Vhttp://sw.opencyc.org/concept/Mx4rvVi96pwpEbGdrcN5Y29ycA
p1193
sVsubType
p1194
(lp1195
VLocation
p1196
aVPoliticalDistrict
p1197
aVAdministrativeDivision
p1198
aVGovernmentalJurisdiction
p1199
aVUSState
p1200
asVdbpedia
p1201
Vhttp://dbpedia.org/resource/Wisconsin
p1202
sVgeo
p1203
V44.5 -89.5
p1204
ssVtext
p1205
VWisconsin
p1206
sa(dp1207
Vrelevance
p1208
V0.26537
p1209
sVcount
p1210
V1
sVtype
p1211
VCrime
p1212
sVtext
p1213
Vassault
p1214
sa(dp1215
Vrelevance
p1216
V0.264607
p1217
sVcount
p1218
V1
sVtype
p1219
VFieldTerminology
p1220
sVtext
p1221
Vlaw enforcement
p1222
sa(dp1223
Vrelevance
p1224
V0.256043
p1225
sVcount
p1226
V1
sVtype
p1227
VStateOrCounty
p1228
sVdisambiguated
p1229
(dp1230
Vwebsite
p1231
Vhttp://www.sc.gov
p1232
sVyago
p1233
Vhttp://yago-knowledge.org/resource/South_Carolina
p1234
sVgeonames
p1235
Vhttp://sws.geonames.org/4597040/
p1236
sVfreebase
p1237
Vhttp://rdf.freebase.com/ns/m.06yxd
p1238
sVopencyc
p1239
Vhttp://sw.opencyc.org/concept/Mx4rvViphZwpEbGdrcN5Y29ycA
p1240
sVsubType
p1241
(lp1242
VLocation
p1243
aVPoliticalDistrict
p1244
aVAdministrativeDivision
p1245
aVGovernmentalJurisdiction
p1246
aVUSState
p1247
asVdbpedia
p1248
Vhttp://dbpedia.org/resource/South_Carolina
p1249
sVname
p1250
VSouth Carolina
p1251
ssVtext
p1252
VSouth Carolina
p1253
sa(dp1254
Vrelevance
p1255
V0.250781
p1256
sVcount
p1257
V1
sVtype
p1258
VFieldTerminology
p1259
sVtext
p1260
VIP address
p1261
sa(dp1262
Vrelevance
p1263
V0.249575
p1264
sVcount
p1265
V1
sVtype
p1266
VStateOrCounty
p1267
sVtext
p1268
VPennsylvania
p1269
sa(dp1270
Vrelevance
p1271
V0.245284
p1272
sVcount
p1273
V1
sVtype
p1274
VPerson
p1275
sVtext
p1276
VScott Tyree
p1277
sa(dp1278
Vrelevance
p1279
V0.24398
p1280
sVcount
p1281
V1
sVtype
p1282
VStateOrCounty
p1283
sVdisambiguated
p1284
(dp1285
Vwebsite
p1286
Vhttp://www.maryland.gov
p1287
sVyago
p1288
Vhttp://yago-knowledge.org/resource/Maryland
p1289
sVcensus
p1290
Vhttp://www.rdfabout.com/rdf/usgov/geo/us/md
p1291
sVgeonames
p1292
Vhttp://sws.geonames.org/4361885/
p1293
sVfreebase
p1294
Vhttp://rdf.freebase.com/ns/m.04rrd
p1295
sVopencyc
p1296
Vhttp://sw.opencyc.org/concept/Mx4rvViu2pwpEbGdrcN5Y29ycA
p1297
sVsubType
p1298
(lp1299
VLocation
p1300
aVPoliticalDistrict
p1301
aVAdministrativeDivision
p1302
aVGovernmentalJurisdiction
p1303
aVUSState
p1304
aVAirportOperator
p1305
asVdbpedia
p1306
Vhttp://dbpedia.org/resource/Maryland
p1307
sVname
p1308
VMaryland
p1309
ssVtext
p1310
VMaryland
p1311
sa(dp1312
Vrelevance
p1313
V0.242502
p1314
sVcount
p1315
V1
sVtype
p1316
VStateOrCounty
p1317
sVdisambiguated
p1318
(dp1319
Vyago
p1320
Vhttp://yago-knowledge.org/resource/Idaho
p1321
sVname
p1322
VIdaho
p1323
sVfreebase
p1324
Vhttp://rdf.freebase.com/ns/m.03s5t
p1325
sVopencyc
p1326
Vhttp://sw.opencyc.org/concept/Mx4rvVindZwpEbGdrcN5Y29ycA
p1327
sVsubType
p1328
(lp1329
VLocation
p1330
aVPoliticalDistrict
p1331
aVAdministrativeDivision
p1332
aVGovernmentalJurisdiction
p1333
aVUSState
p1334
asVdbpedia
p1335
Vhttp://dbpedia.org/resource/Idaho
p1336
ssVtext
p1337
VIdaho
p1338
sasg525
(dp1339
Vanger
p1340
V0.407877
p1341
sVjoy
p1342
V2e-06
p1343
sVfear
p1344
V0.036535
p1345
sVsadness
p1346
V0.001952
p1347
sVdisgust
p1348
V0.003186
p1349
ssg537
(lp1350
(dp1351
Vrelevance
p1352
V0.880802
p1353
sVtext
p1354
VEnglish-language films
p1355
sVdbpedia
p1356
Vhttp://dbpedia.org/resource/English-language_films
p1357
sa(dp1358
Vrelevance
p1359
V0.744802
p1360
sVtext
p1361
VThought
p1362
sVopencyc
p1363
Vhttp://sw.opencyc.org/concept/Mx4rvViHGJwpEbGdrcN5Y29ycA
p1364
sVdbpedia
p1365
Vhttp://dbpedia.org/resource/Thought
p1366
sVfreebase
p1367
Vhttp://rdf.freebase.com/ns/m.097vm
p1368
sa(dp1369
Vrelevance
p1370
V0.737793
p1371
sVtext
p1372
VRape
p1373
sVopencyc
p1374
Vhttp://sw.opencyc.org/concept/Mx4rwQrfCZwpEbGdrcN5Y29ycA
p1375
sVdbpedia
p1376
Vhttp://dbpedia.org/resource/Rape
p1377
sVfreebase
p1378
Vhttp://rdf.freebase.com/ns/m.06g5z
p1379
sa(dp1380
Vwebsite
p1381
Vhttp://www.aerosmith.com
p1382
sVyago
p1383
Vhttp://yago-knowledge.org/resource/Aerosmith
p1384
sVtext
p1385
VAerosmith
p1386
sVmusicBrainz
p1387
Vhttp://zitgist.com/music/artist/3d2b98e5-556f-4451-a3ff-c50ea18d57cb
p1388
sVdbpedia
p1389
Vhttp://dbpedia.org/resource/Aerosmith
p1390
sVfreebase
p1391
Vhttp://rdf.freebase.com/ns/m.0134pk
p1392
sVrelevance
p1393
V0.732225
p1394
sasg629
(lp1395
(dp1396
Vrelevance
p1397
V0.908773
p1398
sVtext
p1399
VAlicia Kozakiewicz
p1400
sa(dp1401
Vrelevance
p1402
V0.860104
p1403
sVtext
p1404
Vtime
p1405
sa(dp1406
Vrelevance
p1407
V0.822718
p1408
sVtext
p1409
Vlaw enforcement
p1410
sa(dp1411
Vrelevance
p1412
V0.77426
p1413
sVtext
p1414
Vpeople
p1415
sa(dp1416
Vrelevance
p1417
V0.77288
p1418
sVtext
p1419
Vold home movies
p1420
sa(dp1421
Vrelevance
p1422
V0.760295
p1423
sVtext
p1424
Vpopular kids
p1425
sa(dp1426
Vrelevance
p1427
V0.758677
p1428
sVtext
p1429
Vlaw enforcement agents
p1430
sa(dp1431
Vrelevance
p1432
V0.758066
p1433
sVtext
p1434
Vchild rescue teams
p1435
sa(dp1436
Vrelevance
p1437
V0.7579
p1438
sVtext
p1439
Vdog collar
p1440
sa(dp1441
Vrelevance
p1442
V0.755954
p1443
sVtext
p1444
Vlaw enforcement officers
p1445
sa(dp1446
Vrelevance
p1447
V0.753513
p1448
sVtext
p1449
Vtoll booth
p1450
sa(dp1451
Vrelevance
p1452
V0.752861
p1453
sVtext
p1454
Vchild exploitation cases
p1455
sa(dp1456
Vrelevance
p1457
V0.751803
p1458
sVtext
p1459
Vinternet safety education
p1460
sa(dp1461
Vrelevance
p1462
V0.751296
p1463
sVtext
p1464
Vchild sexual exploitation
p1465
sa(dp1466
Vrelevance
p1467
V0.750466
p1468
sVtext
p1469
VBBC News Magazine
p1470
sa(dp1471
Vrelevance
p1472
V0.746869
p1473
sVtext
p1474
Vsexually explicit images
p1475
sa(dp1476
Vrelevance
p1477
V0.745445
p1478
sVtext
p1479
Vloving gentle touches
p1480
sa(dp1481
Vrelevance
p1482
V0.743676
p1483
sVtext
p1484
Vdedicated steady stream
p1485
sa(dp1486
Vrelevance
p1487
V0.742585
p1488
sVtext
p1489
Vlittle girl
p1490
sa(dp1491
Vrelevance
p1492
V0.74156
p1493
sVtext
p1494
Vsexual assault cases
p1495
sa(dp1496
Vrelevance
p1497
V0.740737
p1498
sVtext
p1499
Vnew revenue stream
p1500
sa(dp1501
Vrelevance
p1502
V0.725865
p1503
sVtext
p1504
Vcar
p1505
sa(dp1506
Vrelevance
p1507
V0.712876
p1508
sVtext
p1509
Vfamily time
p1510
sa(dp1511
Vrelevance
p1512
V0.707398
p1513
sVtext
p1514
Vchildren
p1515
sa(dp1516
Vrelevance
p1517
V0.702711
p1518
sVtext
p1519
Vstomach ache
p1520
sa(dp1521
Vrelevance
p1522
V0.698722
p1523
sVtext
p1524
VChristmas tree
p1525
sa(dp1526
Vrelevance
p1527
V0.697876
p1528
sVtext
p1529
Vbig meal
p1530
sa(dp1531
Vrelevance
p1532
V0.695767
p1533
sVtext
p1534
Vclose family
p1535
sa(dp1536
Vrelevance
p1537
V0.695475
p1538
sVtext
p1539
Vlong time
p1540
sa(dp1541
Vrelevance
p1542
V0.694113
p1543
sVtext
p1544
VPennsylvania home
p1545
sassg781
(lp1546
sg817
(dp1547
g819
I1
sg820
I48
sg821
I0
sg822
I86
sg823
I906
sg824
I2
ssa(dp1548
g5
Vhttp://www.bbc.co.uk/newsbeat/article/35794208/two-injured-after-iron-maiden-plane-gets-damaged-in-chile?ocid=socialflow_facebook&ns_mchannel=social&ns_campaign=bbcnews&ns_source=facebook
p1549
sg7
VTwo injured after Iron Maiden plane gets damaged
p1550
sg9
VIron Maiden's famous Boeing 747 has been damaged at an Airport in Santiago, Chile.\u000aOn their website the band explained that they hope their gigs in Argentina next week will "go ahead as planned". \u000aWhile being towed a steering pin in a tow truck fell out, meaning it collided with a ground tug as it tried to make a turn.\u000aTwo of the ground tug operators were injured and had to be taken to hospital. \u000aThe band say they will "closely monitor their progress".\u000aThe plane's three times the weight of the Boeing 757 used on Iron Maiden's previous tours in 2008, 2009 and 2011.\u000aAs for the aircraft the undercarriage is reportedly badly damaged, and two new engines might be needed.\u000aThe band's statement continued: "Fortunately the 20 tons of equipment had not been loaded onto Ed Force One at the time of the accident. \u000a"Although this is tragic for our beautiful plane we do not expect this to affect our concert schedule including the next 2 shows in Cordoba and Buenos Aires. \u000a"We hope to find a new Ed Force One to continue this adventure with us in the near future. "\u000aImage caption Vocalist and licensed pilot Bruce Dickinson had been flying his band mates around on their latest tour\u000aBut the band were keen to end on a high note, saying: "Our visit to Chile was a huge success with 58,000 fans coming to the show.\u000a"Totally brilliant as ever in the Stadium Nacional last night.  We love you guys!"\u000aFind us on Instagram at BBCNewsbeat  and follow us on Snapchat, search for bbc_newsbeat\u000a Copyright  2016 BBC. The BBC is not responsible for the content of external sites. Read about our approach to external linking.  \u000a
p1551
sg11
Vhttps://s3.amazonaws.com/prod-cust-photo-posts-jfaikqealaka/3065-f91e826aa8d101dde2fbb2d08f258165.jpg
p1552
sg13
(dp1553
g15
(dp1554
Vmixed
p1555
V1
sVscore
p1556
V0.0503685
p1557
sVtype
p1558
Vpositive
p1559
ssg22
(lp1560
(dp1561
Vscore
p1562
V0.553803
p1563
sVlabel
p1564
V/society/welfare/healthcare/hospital
p1565
sa(dp1566
Vscore
p1567
V0.549551
p1568
sVlabel
p1569
V/business and industrial/advertising and marketing/advertising
p1570
sa(dp1571
Vscore
p1572
V0.524506
p1573
sVlabel
p1574
V/automotive and vehicles/cars
p1575
sasg43
(lp1576
(dp1577
Vrelevance
p1578
V0.969677
p1579
sVcount
p1580
V2
sVtype
p1581
VCompany
p1582
sVdisambiguated
p1583
(dp1584
Vwebsite
p1585
Vhttp://www.boeing.com/
p1586
sVyago
p1587
Vhttp://yago-knowledge.org/resource/Boeing
p1588
sVname
p1589
VBoeing
p1590
sVfreebase
p1591
Vhttp://rdf.freebase.com/ns/m.0178g
p1592
sVsubType
p1593
(lp1594
VAircraftDesigner
p1595
aVAircraftManufacturer
p1596
aVProjectParticipant
p1597
aVRocketManufacturer
p1598
aVSpacecraftManufacturer
p1599
asVcrunchbase
p1600
Vhttp://www.crunchbase.com/company/boeing
p1601
sVdbpedia
p1602
Vhttp://dbpedia.org/resource/Boeing
p1603
ssVtext
p1604
VBoeing
p1605
sa(dp1606
Vrelevance
p1607
V0.910174
p1608
sVcount
p1609
V2
sVtype
p1610
VCountry
p1611
sVdisambiguated
p1612
(dp1613
Vwebsite
p1614
Vhttp://www.thisischile.cl/
p1615
sVyago
p1616
Vhttp://yago-knowledge.org/resource/Chile
p1617
sVname
p1618
VChile
p1619
sVfreebase
p1620
Vhttp://rdf.freebase.com/ns/m.01p1v
p1621
sVopencyc
p1622
Vhttp://sw.opencyc.org/concept/Mx4rvViUkZwpEbGdrcN5Y29ycA
p1623
sVsubType
p1624
(lp1625
VLocation
p1626
aVGovernmentalJurisdiction
p1627
asVdbpedia
p1628
Vhttp://dbpedia.org/resource/Chile
p1629
sVciaFactbook
p1630
Vhttp://www4.wiwiss.fu-berlin.de/factbook/resource/Chile
p1631
ssVtext
p1632
VChile
p1633
sa(dp1634
Vrelevance
p1635
V0.886985
p1636
sVcount
p1637
V1
sVtype
p1638
VOrganization
p1639
sVdisambiguated
p1640
(dp1641
Vwebsite
p1642
Vhttp://www.ironmaiden.com/
p1643
sVyago
p1644
Vhttp://yago-knowledge.org/resource/Iron_Maiden
p1645
sVname
p1646
VIron Maiden
p1647
sVfreebase
p1648
Vhttp://rdf.freebase.com/ns/m.014_xj
p1649
sVopencyc
p1650
Vhttp://sw.opencyc.org/concept/Mx4rv_L_PJwpEbGdrcN5Y29ycA
p1651
sVdbpedia
p1652
Vhttp://dbpedia.org/resource/Iron_Maiden
p1653
ssVtext
p1654
VEd Force One
p1655
sa(dp1656
Vrelevance
p1657
V0.727318
p1658
sVcount
p1659
V2
sVtype
p1660
VCompany
p1661
sVtext
p1662
VBBC
p1663
sa(dp1664
Vrelevance
p1665
V0.699394
p1666
sVcount
p1667
V1
sVtype
p1668
VGeographicFeature
p1669
sVtext
p1670
VEd Force
p1671
sa(dp1672
Vrelevance
p1673
V0.636237
p1674
sVcount
p1675
V1
sVtype
p1676
VPerson
p1677
sVdisambiguated
p1678
(dp1679
Vwebsite
p1680
Vhttp://www.screamforme.com/
p1681
sVyago
p1682
Vhttp://yago-knowledge.org/resource/Bruce_Dickinson
p1683
sVname
p1684
VBruce Dickinson
p1685
sVfreebase
p1686
Vhttp://rdf.freebase.com/ns/m.01lvl5
p1687
sVsubType
p1688
(lp1689
VComposition
p1690
aVMusicalArtist
p1691
aVBroadcastArtist
p1692
aVGuitarist
p1693
aVMusicalGroupMember
p1694
aVTVActor
p1695
asVdbpedia
p1696
Vhttp://dbpedia.org/resource/Bruce_Dickinson
p1697
sVmusicBrainz
p1698
Vhttp://zitgist.com/music/artist/50698127-f6f4-4c0c-8010-db98c21100e1
p1699
ssVtext
p1700
VBruce Dickinson
p1701
sa(dp1702
Vrelevance
p1703
V0.634269
p1704
sVcount
p1705
V1
sVtype
p1706
VCountry
p1707
sVdisambiguated
p1708
(dp1709
Vwebsite
p1710
Vhttp://www.en.argentina.ar
p1711
sVyago
p1712
Vhttp://yago-knowledge.org/resource/Argentina
p1713
sVname
p1714
VArgentina
p1715
sVfreebase
p1716
Vhttp://rdf.freebase.com/ns/m.0jgd
p1717
sVopencyc
p1718
Vhttp://sw.opencyc.org/concept/Mx4rvVjX8ZwpEbGdrcN5Y29ycA
p1719
sVsubType
p1720
(lp1721
VLocation
p1722
aVRegion
p1723
aVGovernmentalJurisdiction
p1724
asVdbpedia
p1725
Vhttp://dbpedia.org/resource/Argentina
p1726
sVciaFactbook
p1727
Vhttp://www4.wiwiss.fu-berlin.de/factbook/resource/Argentina
p1728
sVgeo
p1729
V-26.25 -53.63333333333333
p1730
ssVtext
p1731
VArgentina
p1732
sa(dp1733
Vrelevance
p1734
V0.622665
p1735
sVcount
p1736
V1
sVtype
p1737
VCity
p1738
sVdisambiguated
p1739
(dp1740
Vfreebase
p1741
Vhttp://rdf.freebase.com/ns/m.0dlqv
p1742
sVdbpedia
p1743
Vhttp://dbpedia.org/resource/Santiago
p1744
sVname
p1745
VSantiago
p1746
ssVtext
p1747
VSantiago
p1748
sa(dp1749
Vrelevance
p1750
V0.588458
p1751
sVcount
p1752
V1
sVtype
p1753
VGeographicFeature
p1754
sVtext
p1755
VStadium Nacional
p1756
sa(dp1757
Vrelevance
p1758
V0.578114
p1759
sVcount
p1760
V1
sVtype
p1761
VCity
p1762
sVdisambiguated
p1763
(dp1764
Vwebsite
p1765
Vhttp://www.bue.gov.ar/home/index.php?&lang=en
p1766
sVyago
p1767
Vhttp://yago-knowledge.org/resource/Buenos_Aires
p1768
sVname
p1769
VBuenos Aires
p1770
sVfreebase
p1771
Vhttp://rdf.freebase.com/ns/m.01ly5m
p1772
sVsubType
p1773
(lp1774
VAdministrativeDivision
p1775
aVGovernmentalJurisdiction
p1776
aVOlympicBiddingCity
p1777
aVPlaceWithNeighborhoods
p1778
asVdbpedia
p1779
Vhttp://dbpedia.org/resource/Buenos_Aires
p1780
sVgeo
p1781
V-34.60333333333333 -58.38166666666667
p1782
ssVtext
p1783
VBuenos Aires
p1784
sa(dp1785
Vrelevance
p1786
V0.535061
p1787
sVcount
p1788
V1
sVtype
p1789
VCity
p1790
sVtext
p1791
VCordoba
p1792
sa(dp1793
Vrelevance
p1794
V0.49579
p1795
sVcount
p1796
V1
sVtype
p1797
VCity
p1798
sVtext
p1799
VSnapchat
p1800
sa(dp1801
Vrelevance
p1802
V0.49579
p1803
sVcount
p1804
V1
sVtype
p1805
VQuantity
p1806
sVtext
p1807
V20 tons
p1808
sasg525
(dp1809
Vanger
p1810
V0.034561
p1811
sVjoy
p1812
V0.000813
p1813
sVfear
p1814
V0.073768
p1815
sVsadness
p1816
V0.079888
p1817
sVdisgust
p1818
V0.097305
p1819
ssg537
(lp1820
(dp1821
Vwebsite
p1822
Vhttp://www.screamforme.com/
p1823
sVyago
p1824
Vhttp://yago-knowledge.org/resource/Bruce_Dickinson
p1825
sVtext
p1826
VBruce Dickinson
p1827
sVmusicBrainz
p1828
Vhttp://zitgist.com/music/artist/50698127-f6f4-4c0c-8010-db98c21100e1
p1829
sVdbpedia
p1830
Vhttp://dbpedia.org/resource/Bruce_Dickinson
p1831
sVfreebase
p1832
Vhttp://rdf.freebase.com/ns/m.01lvl5
p1833
sVrelevance
p1834
V0.943812
p1835
sa(dp1836
Vwebsite
p1837
Vhttp://www.en.argentina.ar
p1838
sVyago
p1839
Vhttp://yago-knowledge.org/resource/Argentina
p1840
sVtext
p1841
VArgentina
p1842
sVopencyc
p1843
Vhttp://sw.opencyc.org/concept/Mx4rvVjX8ZwpEbGdrcN5Y29ycA
p1844
sVdbpedia
p1845
Vhttp://dbpedia.org/resource/Argentina
p1846
sVfreebase
p1847
Vhttp://rdf.freebase.com/ns/m.0jgd
p1848
sVrelevance
p1849
V0.792456
p1850
sVciaFactbook
p1851
Vhttp://www4.wiwiss.fu-berlin.de/factbook/resource/Argentina
p1852
sVgeo
p1853
V-26.25 -53.63333333333333
p1854
sa(dp1855
Vyago
p1856
Vhttp://yago-knowledge.org/resource/Boeing_707
p1857
sVtext
p1858
VBoeing 707
p1859
sVopencyc
p1860
Vhttp://sw.opencyc.org/concept/Mx4rwD99d5wpEbGdrcN5Y29ycA
p1861
sVdbpedia
p1862
Vhttp://dbpedia.org/resource/Boeing_707
p1863
sVfreebase
p1864
Vhttp://rdf.freebase.com/ns/m.0hqnc
p1865
sVrelevance
p1866
V0.741748
p1867
sa(dp1868
Vwebsite
p1869
Vhttp://www.bue.gov.ar/home/index.php?&lang=en
p1870
sVyago
p1871
Vhttp://yago-knowledge.org/resource/Buenos_Aires
p1872
sVtext
p1873
VBuenos Aires
p1874
sVdbpedia
p1875
Vhttp://dbpedia.org/resource/Buenos_Aires
p1876
sVfreebase
p1877
Vhttp://rdf.freebase.com/ns/m.01ly5m
p1878
sVrelevance
p1879
V0.718395
p1880
sVgeo
p1881
V-34.60333333333333 -58.38166666666667
p1882
sa(dp1883
Vwebsite
p1884
Vhttp://www.boeing.com/commercial
p1885
sVyago
p1886
Vhttp://yago-knowledge.org/resource/Boeing_Commercial_Airplanes
p1887
sVtext
p1888
VBoeing Commercial Airplanes
p1889
sVdbpedia
p1890
Vhttp://dbpedia.org/resource/Boeing_Commercial_Airplanes
p1891
sVfreebase
p1892
Vhttp://rdf.freebase.com/ns/m.03krzb
p1893
sVrelevance
p1894
V0.702795
p1895
sa(dp1896
Vrelevance
p1897
V0.690504
p1898
sVtext
p1899
VAirliner
p1900
sVopencyc
p1901
Vhttp://sw.opencyc.org/concept/Mx4r0Z1FHjDhQdiBpokGyffSPA
p1902
sVdbpedia
p1903
Vhttp://dbpedia.org/resource/Airliner
p1904
sVfreebase
p1905
Vhttp://rdf.freebase.com/ns/m.0dhz0
p1906
sa(dp1907
Vwebsite
p1908
Vhttp://www.ironmaiden.com/
p1909
sVyago
p1910
Vhttp://yago-knowledge.org/resource/Iron_Maiden
p1911
sVtext
p1912
VIron Maiden
p1913
sVopencyc
p1914
Vhttp://sw.opencyc.org/concept/Mx4rv_L_PJwpEbGdrcN5Y29ycA
p1915
sVdbpedia
p1916
Vhttp://dbpedia.org/resource/Iron_Maiden
p1917
sVfreebase
p1918
Vhttp://rdf.freebase.com/ns/m.014_xj
p1919
sVrelevance
p1920
V0.67552
p1921
sa(dp1922
Vwebsite
p1923
Vhttp://web.archive.org/*/www.nwa.com
p1924
sVyago
p1925
Vhttp://yago-knowledge.org/resource/Northwest_Airlines
p1926
sVtext
p1927
VNorthwest Airlines
p1928
sVopencyc
p1929
Vhttp://sw.opencyc.org/concept/Mx4rvd7xBJwpEbGdrcN5Y29ycA
p1930
sVdbpedia
p1931
Vhttp://dbpedia.org/resource/Northwest_Airlines
p1932
sVfreebase
p1933
Vhttp://rdf.freebase.com/ns/m.012lxn
p1934
sVrelevance
p1935
V0.654211
p1936
sasg629
(lp1937
(dp1938
Vrelevance
p1939
V0.99552
p1940
sVtext
p1941
VIron Maiden
p1942
sa(dp1943
Vrelevance
p1944
V0.985066
p1945
sVtext
p1946
Vground tug
p1947
sa(dp1948
Vrelevance
p1949
V0.933685
p1950
sVtext
p1951
Vground tug operators
p1952
sa(dp1953
Vrelevance
p1954
V0.913935
p1955
sVtext
p1956
VEd Force
p1957
sa(dp1958
Vrelevance
p1959
V0.878606
p1960
sVtext
p1961
VImage caption Vocalist
p1962
sa(dp1963
Vrelevance
p1964
V0.862804
p1965
sVtext
p1966
Vnew Ed Force
p1967
sa(dp1968
Vrelevance
p1969
V0.862404
p1970
sVtext
p1971
Vpilot Bruce Dickinson
p1972
sa(dp1973
Vrelevance
p1974
V0.696593
p1975
sVtext
p1976
Vsteering pin
p1977
sa(dp1978
Vrelevance
p1979
V0.687224
p1980
sVtext
p1981
Vtow truck
p1982
sa(dp1983
Vrelevance
p1984
V0.673294
p1985
sVtext
p1986
Vbeautiful plane
p1987
sa(dp1988
Vrelevance
p1989
V0.67278
p1990
sVtext
p1991
VBuenos Aires
p1992
sa(dp1993
Vrelevance
p1994
V0.671993
p1995
sVtext
p1996
Vprevious tours
p1997
sa(dp1998
Vrelevance
p1999
V0.664499
p2000
sVtext
p2001
Vnew engines
p2002
sa(dp2003
Vrelevance
p2004
V0.662319
p2005
sVtext
p2006
VStadium Nacional
p2007
sa(dp2008
Vrelevance
p2009
V0.661
p2010
sVtext
p2011
Vconcert schedule
p2012
sa(dp2013
Vrelevance
p2014
V0.655535
p2015
sVtext
p2016
Vexternal linking
p2017
sa(dp2018
Vrelevance
p2019
V0.65385
p2020
sVtext
p2021
Vexternal sites
p2022
sa(dp2023
Vrelevance
p2024
V0.652087
p2025
sVtext
p2026
Vlatest tour
p2027
sa(dp2028
Vrelevance
p2029
V0.650064
p2030
sVtext
p2031
Vhuge success
p2032
sa(dp2033
Vrelevance
p2034
V0.645923
p2035
sVtext
p2036
Vhigh note
p2037
sa(dp2038
Vrelevance
p2039
V0.635509
p2040
sVtext
p2041
Vband
p2042
sa(dp2043
Vrelevance
p2044
V0.537661
p2045
sVtext
p2046
VBoeing
p2047
sa(dp2048
Vrelevance
p2049
V0.517831
p2050
sVtext
p2051
VChile
p2052
sa(dp2053
Vrelevance
p2054
V0.476551
p2055
sVtext
p2056
VBBC
p2057
sa(dp2058
Vrelevance
p2059
V0.471274
p2060
sVtext
p2061
Vundercarriage
p2062
sa(dp2063
Vrelevance
p2064
V0.463438
p2065
sVtext
p2066
VCordoba
p2067
sa(dp2068
Vrelevance
p2069
V0.459792
p2070
sVtext
p2071
VSantiago
p2072
sa(dp2073
Vrelevance
p2074
V0.455136
p2075
sVtext
p2076
Vtons
p2077
sa(dp2078
Vrelevance
p2079
V0.451395
p2080
sVtext
p2081
Vwebsite
p2082
sa(dp2083
Vrelevance
p2084
V0.451251
p2085
sVtext
p2086
VAirport
p2087
sassg781
(lp2088
sg817
(dp2089
g819
I5
sg820
I8
sg821
I3
sg822
I109
sg823
I1301
sg824
I115
ssa(dp2090
g5
Vhttp://www.bbc.co.uk/news/uk-england-london-35793887?ocid=socialflow_facebook&ns_mchannel=social&ns_campaign=bbcnews&ns_source=facebook
p2091
sg7
VTop Gear's Matt LeBlanc crashes London wedding
p2092
sg9
VTop Gear host Matt LeBlanc gatecrashed a wedding at St Paul's Cathedral while touring round the capital during filming.\u000aHe was joined by professional rally driver Ken Block as he spun around the city in a Ford Mustang.\u000aThe wedding party got a wave and a quick look in as they drove through the City of London.\u000aThe duo in Block's 845bhp 4WD Hoonicorn Mustang took a selfie on Tower Bridge.\u000aMatt LeBlanc also tweeted a picture of himself from Canary Wharf saying: "Canary wharf is nice."\u000aPaul Bradbury, head of retail at West Bromwich Albion Football Club, was in the capital with his wife for the weekend for a football match and caught the action at St Paul's Cathedral. \u000aMr Bradbury, from Newcastle-under-Lyme, Staffordshire, said: "It was very very loud and entertaining but everyone seemed to enjoy it. \u000a"Matt LeBlanc walked down and had a quick look of the route before he jumped in the car.\u000a"The car seemed to stall for a couple of minutes but they got going again and made a couple of takes with the wedding party on the steps."\u000aThe new series of BBC Two show is due to start in May.\u000a
p2093
sg11
Vhttps://s3.amazonaws.com/prod-cust-photo-posts-jfaikqealaka/3065-95d35338a8d1a0013674ef055e758b2f.jpg
p2094
sg13
(dp2095
g15
(dp2096
Vmixed
p2097
V1
sVscore
p2098
V0.598844
p2099
sVtype
p2100
Vpositive
p2101
ssg22
(lp2102
(dp2103
Vscore
p2104
V0.500125
p2105
sVlabel
p2106
V/art and entertainment/movies and tv/television
p2107
sa(dp2108
Vscore
p2109
V0.41866
p2110
sVlabel
p2111
V/automotive and vehicles/vehicle brands/ford
p2112
sa(dp2113
Vscore
p2114
V0.409912
p2115
sVlabel
p2116
V/real estate/apartments
p2117
sasg43
(lp2118
(dp2119
Vrelevance
p2120
V0.916262
p2121
sVcount
p2122
V6
sVtype
p2123
VPerson
p2124
sVdisambiguated
p2125
(dp2126
Vyago
p2127
Vhttp://yago-knowledge.org/resource/Matt_LeBlanc
p2128
sVname
p2129
VMatt LeBlanc
p2130
sVfreebase
p2131
Vhttp://rdf.freebase.com/ns/m.01rrd4
p2132
sVopencyc
p2133
Vhttp://sw.opencyc.org/concept/Mx4rvZutNZwpEbGdrcN5Y29ycA
p2134
sVsubType
p2135
(lp2136
VActor
p2137
aVAwardNominee
p2138
aVCelebrity
p2139
aVFilmActor
p2140
aVFilmProducer
p2141
aVTVActor
p2142
asVdbpedia
p2143
Vhttp://dbpedia.org/resource/Matt_LeBlanc
p2144
ssVtext
p2145
VMatt LeBlanc
p2146
sa(dp2147
Vrelevance
p2148
V0.475987
p2149
sVcount
p2150
V2
sVtype
p2151
VFacility
p2152
sVtext
p2153
VSt Paul's Cathedral
p2154
sa(dp2155
Vrelevance
p2156
V0.396689
p2157
sVcount
p2158
V3
sVtype
p2159
VPerson
p2160
sVtext
p2161
VKen Block
p2162
sa(dp2163
Vrelevance
p2164
V0.380038
p2165
sVcount
p2166
V2
sVtype
p2167
VFacility
p2168
sVdisambiguated
p2169
(dp2170
Vyago
p2171
Vhttp://yago-knowledge.org/resource/Canary_Wharf_tube_station
p2172
sVsubType
p2173
(lp2174
VLocation
p2175
aVBuilding
p2176
asVdbpedia
p2177
Vhttp://dbpedia.org/resource/Canary_Wharf_tube_station
p2178
sVname
p2179
VCanary Wharf tube station
p2180
sVfreebase
p2181
Vhttp://rdf.freebase.com/ns/m.01rz15
p2182
ssVtext
p2183
VCanary Wharf
p2184
sa(dp2185
Vrelevance
p2186
V0.364198
p2187
sVcount
p2188
V2
sVtype
p2189
VPerson
p2190
sVtext
p2191
VPaul Bradbury
p2192
sa(dp2193
Vrelevance
p2194
V0.346982
p2195
sVcount
p2196
V2
sVtype
p2197
VAutomobile
p2198
sVtext
p2199
VMustang
p2200
sa(dp2201
Vrelevance
p2202
V0.284629
p2203
sVcount
p2204
V1
sVtype
p2205
VFacility
p2206
sVtext
p2207
VWest Bromwich Albion Football Club
p2208
sa(dp2209
Vrelevance
p2210
V0.217065
p2211
sVcount
p2212
V1
sVtype
p2213
VCity
p2214
sVdisambiguated
p2215
(dp2216
Vwebsite
p2217
Vhttp://www.london.gov.uk/
p2218
sVyago
p2219
Vhttp://yago-knowledge.org/resource/London
p2220
sVname
p2221
VLondon
p2222
sVfreebase
p2223
Vhttp://rdf.freebase.com/ns/m.04jpl
p2224
sVsubType
p2225
(lp2226
VAdministrativeDivision
p2227
aVGovernmentalJurisdiction
p2228
aVOlympicHostCity
p2229
aVPlaceWithNeighborhoods
p2230
asVdbpedia
p2231
Vhttp://dbpedia.org/resource/London
p2232
sVgeo
p2233
V51.50805555555556 -0.12472222222222222
p2234
sVgeonames
p2235
Vhttp://sws.geonames.org/2643743/
p2236
ssVtext
p2237
VLondon
p2238
sa(dp2239
Vrelevance
p2240
V0.215347
p2241
sVcount
p2242
V1
sVtype
p2243
VFacility
p2244
sVtext
p2245
VTower Bridge
p2246
sa(dp2247
Vrelevance
p2248
V0.210289
p2249
sVcount
p2250
V1
sVtype
p2251
VCompany
p2252
sVdisambiguated
p2253
(dp2254
Vwebsite
p2255
Vhttp://www.bbc.co.uk
p2256
sVyago
p2257
Vhttp://yago-knowledge.org/resource/BBC
p2258
sVname
p2259
VBBC
p2260
sVfreebase
p2261
Vhttp://rdf.freebase.com/ns/m.0g5lhl7
p2262
sVopencyc
p2263
Vhttp://sw.opencyc.org/concept/Mx4rwMl8FpwpEbGdrcN5Y29ycA
p2264
sVsubType
p2265
(lp2266
VMusicalAlbum
p2267
aVBroadcast
p2268
aVPeriodicalPublisher
p2269
aVProductionCompany
p2270
aVTVNetwork
p2271
aVAwardNominee
p2272
aVAwardWinner
p2273
aVFilmDirector
p2274
aVFilmProducer
p2275
aVMusicalArtist
p2276
aVTVProducer
p2277
asVcrunchbase
p2278
Vhttp://www.crunchbase.com/company/bbc
p2279
sVdbpedia
p2280
Vhttp://dbpedia.org/resource/BBC
p2281
ssVtext
p2282
VBBC
p2283
sa(dp2284
Vrelevance
p2285
V0.207531
p2286
sVcount
p2287
V1
sVtype
p2288
VJobTitle
p2289
sVtext
p2290
Vhead of retail
p2291
sa(dp2292
Vrelevance
p2293
V0.198591
p2294
sVcount
p2295
V1
sVtype
p2296
VStateOrCounty
p2297
sVtext
p2298
VStaffordshire
p2299
sa(dp2300
Vrelevance
p2301
V0.19738
p2302
sVcount
p2303
V1
sVtype
p2304
VSport
p2305
sVtext
p2306
Vfootball
p2307
sasg525
(dp2308
Vanger
p2309
V0.059206
p2310
sVjoy
p2311
V0.020376
p2312
sVfear
p2313
V0.023851
p2314
sVsadness
p2315
V0.031814
p2316
sVdisgust
p2317
V0.195081
p2318
ssg537
(lp2319
(dp2320
Vwebsite
p2321
Vhttp://www.london.gov.uk/
p2322
sVyago
p2323
Vhttp://yago-knowledge.org/resource/London
p2324
sVgeonames
p2325
Vhttp://sws.geonames.org/2643743/
p2326
sVtext
p2327
VLondon
p2328
sVdbpedia
p2329
Vhttp://dbpedia.org/resource/London
p2330
sVfreebase
p2331
Vhttp://rdf.freebase.com/ns/m.04jpl
p2332
sVrelevance
p2333
V0.984322
p2334
sVgeo
p2335
V51.50805555555556 -0.12472222222222222
p2336
sa(dp2337
Vwebsite
p2338
Vhttp://www.cityoflondon.gov.uk
p2339
sVyago
p2340
Vhttp://yago-knowledge.org/resource/City_of_London
p2341
sVtext
p2342
VCity of London
p2343
sVdbpedia
p2344
Vhttp://dbpedia.org/resource/City_of_London
p2345
sVfreebase
p2346
Vhttp://rdf.freebase.com/ns/m.01_c4
p2347
sVrelevance
p2348
V0.960886
p2349
sVgeo
p2350
V51.5155 -0.0922
p2351
sa(dp2352
Vwebsite
p2353
Vhttp://www.wba.co.uk
p2354
sVyago
p2355
Vhttp://yago-knowledge.org/resource/West_Bromwich_Albion_F.C.
p2356
sVtext
p2357
VWest Bromwich Albion F.C.
p2358
sVdbpedia
p2359
Vhttp://dbpedia.org/resource/West_Bromwich_Albion_F.C.
p2360
sVfreebase
p2361
Vhttp://rdf.freebase.com/ns/m.085v7
p2362
sVrelevance
p2363
V0.926644
p2364
sa(dp2365
Vyago
p2366
Vhttp://yago-knowledge.org/resource/West_Bromwich
p2367
sVgeonames
p2368
Vhttp://sws.geonames.org/2634491/
p2369
sVtext
p2370
VWest Bromwich
p2371
sVdbpedia
p2372
Vhttp://dbpedia.org/resource/West_Bromwich
p2373
sVfreebase
p2374
Vhttp://rdf.freebase.com/ns/m.01n244
p2375
sVrelevance
p2376
V0.659295
p2377
sa(dp2378
Vrelevance
p2379
V0.652326
p2380
sVtext
p2381
VEnglish-language films
p2382
sVdbpedia
p2383
Vhttp://dbpedia.org/resource/English-language_films
p2384
sa(dp2385
Vyago
p2386
Vhttp://yago-knowledge.org/resource/London_Borough_of_Tower_Hamlets
p2387
sVgeonames
p2388
Vhttp://sws.geonames.org/2635594/
p2389
sVtext
p2390
VLondon Borough of Tower Hamlets
p2391
sVdbpedia
p2392
Vhttp://dbpedia.org/resource/London_Borough_of_Tower_Hamlets
p2393
sVfreebase
p2394
Vhttp://rdf.freebase.com/ns/m.0nlg4
p2395
sVrelevance
p2396
V0.602823
p2397
sVgeo
p2398
V51.516666666666666 -0.05
p2399
sa(dp2400
Vrelevance
p2401
V0.586755
p2402
sVtext
p2403
VStaffordshire
p2404
sVyago
p2405
Vhttp://yago-knowledge.org/resource/Staffordshire
p2406
sVdbpedia
p2407
Vhttp://dbpedia.org/resource/Staffordshire
p2408
sVfreebase
p2409
Vhttp://rdf.freebase.com/ns/m.0g14f
p2410
sa(dp2411
Vrelevance
p2412
V0.551371
p2413
sVtext
p2414
VMarriage
p2415
sVopencyc
p2416
Vhttp://sw.opencyc.org/concept/Mx4rm5AeosCGEdmAAAACs6hRjg
p2417
sVdbpedia
p2418
Vhttp://dbpedia.org/resource/Marriage
p2419
sVfreebase
p2420
Vhttp://rdf.freebase.com/ns/m.04ztj
p2421
sasg629
(lp2422
(dp2423
Vrelevance
p2424
V0.963693
p2425
sVtext
p2426
VMatt LeBlanc
p2427
sa(dp2428
Vrelevance
p2429
V0.832518
p2430
sVtext
p2431
Vhost Matt LeBlanc
p2432
sa(dp2433
Vrelevance
p2434
V0.714286
p2435
sVtext
p2436
Vcanary wharf
p2437
sa(dp2438
Vrelevance
p2439
V0.703385
p2440
sVtext
p2441
Vdriver Ken Block
p2442
sa(dp2443
Vrelevance
p2444
V0.68829
p2445
sVtext
p2446
VWest Bromwich Albion
p2447
sa(dp2448
Vrelevance
p2449
V0.685507
p2450
sVtext
p2451
VSt Paul
p2452
sa(dp2453
Vrelevance
p2454
V0.675896
p2455
sVtext
p2456
Vquick look
p2457
sa(dp2458
Vrelevance
p2459
V0.583363
p2460
sVtext
p2461
VPaul Bradbury
p2462
sa(dp2463
Vrelevance
p2464
V0.579571
p2465
sVtext
p2466
VMr Bradbury
p2467
sa(dp2468
Vrelevance
p2469
V0.573624
p2470
sVtext
p2471
VFord Mustang
p2472
sa(dp2473
Vrelevance
p2474
V0.568397
p2475
sVtext
p2476
VHoonicorn Mustang
p2477
sa(dp2478
Vrelevance
p2479
V0.551544
p2480
sVtext
p2481
VTower Bridge
p2482
sa(dp2483
Vrelevance
p2484
V0.54935
p2485
sVtext
p2486
Vwedding party
p2487
sa(dp2488
Vrelevance
p2489
V0.54336
p2490
sVtext
p2491
Vnew series
p2492
sa(dp2493
Vrelevance
p2494
V0.542235
p2495
sVtext
p2496
VFootball Club
p2497
sa(dp2498
Vrelevance
p2499
V0.54117
p2500
sVtext
p2501
Vfootball match
p2502
sa(dp2503
Vrelevance
p2504
V0.451838
p2505
sVtext
p2506
Vcouple
p2507
sa(dp2508
Vrelevance
p2509
V0.44885
p2510
sVtext
p2511
Vcapital
p2512
sa(dp2513
Vrelevance
p2514
V0.448443
p2515
sVtext
p2516
Vcity
p2517
sa(dp2518
Vrelevance
p2519
V0.44256
p2520
sVtext
p2521
Vcar
p2522
sa(dp2523
Vrelevance
p2524
V0.442515
p2525
sVtext
p2526
VNewcastle-under-Lyme
p2527
sa(dp2528
Vrelevance
p2529
V0.433466
p2530
sVtext
p2531
VCathedral
p2532
sa(dp2533
Vrelevance
p2534
V0.431393
p2535
sVtext
p2536
Vfilming
p2537
sa(dp2538
Vrelevance
p2539
V0.427683
p2540
sVtext
p2541
VStaffordshire
p2542
sa(dp2543
Vrelevance
p2544
V0.427464
p2545
sVtext
p2546
VGear
p2547
sa(dp2548
Vrelevance
p2549
V0.426772
p2550
sVtext
p2551
Vduo
p2552
sa(dp2553
Vrelevance
p2554
V0.426645
p2555
sVtext
p2556
Vrally
p2557
sa(dp2558
Vrelevance
p2559
V0.425945
p2560
sVtext
p2561
Vwife
p2562
sa(dp2563
Vrelevance
p2564
V0.425752
p2565
sVtext
p2566
Vwave
p2567
sa(dp2568
Vrelevance
p2569
V0.424866
p2570
sVtext
p2571
VLondon
p2572
sassg781
(lp2573
sg817
(dp2574
g819
I14
sg820
I19
sg821
I71
sg822
I4
sg823
I2592
sg824
I34
ssa(dp2575
g5
Vhttp://www.bbc.co.uk/news/disability-35762887?ocid=socialflow_facebook&ns_mchannel=social&ns_campaign=bbcnews&ns_source=facebook
p2576
sg7
V'Pretty Cripples' and the people turned on by disability
p2577
sg9
VAfter posting a photo of herself online, disabled BBC Three presenter Emily Yates was shocked to receive a message saying "pretty cripple". It led her to investigate the secret world of "devotees" - those who are sexually aroused by disabled people and their struggles. \u000aIt was 2011 and I was living in Melbourne, Australia, when I posted a photo of myself in my wheelchair on Facebook ahead of the university's annual ball.  \u000aLater I saw a few friendly comments had been added from people wishing me a great evening but below that I was shocked to see the words "pretty cripple" posted by a friend in New York. \u000aI was hurt that compliments and negative terms could go hand-in-hand in this way, but was even more offended when I later discovered that, to some, it was the biggest gesture of admiration he could have given me. \u000aAfter an angry Facebook rant, I found myself being introduced to a community of people who are sexually aroused, and attracted to, disability as friends pointed me towards some websites about people known as devotees.\u000aThe websites would become the doorway to discovering some pretty dark stuff but, surprisingly, I found it strangely refreshing at times.\u000aI'm ashamed to say that I often find myself almost apologising for my disability. I have cerebral palsy and, when talking to guys online, I make sure they know I'm a wheelchair user so they have a get-out clause before choosing to meet me.\u000aIn a world that constantly tells us anything out of the realms of "normal" is undesirable, I'd be lying if I said I wasn't impressed by the idea that there are people out there who would happily love and accept every little bit of me, especially the bits that I've always considered flawed.  \u000aBut, as I started to come face to face with people in the devotee community, I felt wary. \u000aOne of the first I met was Gray, a husband and father in the USA, who wanted to remain anonymous as even his wife doesn't know of his interest.\u000aHe seemed both confident and lonely - accepting of his "devness" as he calls it, but equally trapped by it.  \u000aHe told me he thought my legs were "very nice and sexy" and sees leg-braces or wheelchairs in the same way others see party dresses. For him, relationships with disabled women can offer more intimacy than those with able-bodied women.\u000aGray's interest in disabled women first emerged at school when a girl with a very short leg and one arm entered his classroom, he says he fell immediately in love: "To me she was obviously the most gorgeous woman in the whole school district."\u000aAs I spoke to him, though, I wondered if his attraction was more about vulnerability and power - things which I didn't want others to consider when they look at me. \u000aIt was through meeting Gray that I discovered some devs are solely attracted to the disabled body, and cannot find sexual gratification with able-bodied partners. \u000aRuth Madison, an American author who writes fiction about a teenage devotee and her love for a paraplegic man, is open about her devoteeism, which is perhaps why I liked her so much.\u000aFind out more\u000aYou can watch Emily Yates's documentary, Meet The Devotees on the BBC Three website and BBC iPlayer \u000aListen: Tune into the BBC Ouch talk-show where Emily joins in on the debate about devotees \u000aShe says she was a toddler when she first realised her desire for disabled people but knew she "couldn't let anyone know". This led to years of intense secrecy.\u000aWhen I met Madison she proudly showed me her desk chair - it's a second-hand wheelchair - and said her feelings are now so intense it impacts her sex life.\u000aPeople she gets involved with have to be noticeably disabled. One boyfriend she had was paralysed but only had a damaged spinal cord rather than a completely severed one and so had a certain degree of mobility. "He didn't always use equipment," she says, "and when we were in bed together I couldn't really see his disability.\u000a"That would sometimes hamper things for me," she says, and admits she would have to look at his stick or wheelchair to become aroused. \u000aMeeting Madison and seeing her open and honest attitude empowered me.\u000aDevoteeism finally had a face and a name which invited me into a home, was transparent and much more than an online presence with a disability fetish.  It helped make me realise devotees are people too. \u000aBut I also came into contact with a section of the devotee community called the "bad devs" - those who enjoy watching someone struggle. \u000aSimply put, this particular fetish focuses on the difficulties someone with a disability might face in their everyday life, such as using stairs. \u000aTo find out more about this for myself I decided to make my own "devotee porn" for bad devs. \u000aStrangely, it's not like the porn you might be thinking of. Imagine the most mundane everyday task acted out by a disabled person. Not worth watching, right? Some devotees couldn't disagree more.\u000aPutting a call out on social media I asked what my audience wanted to see from me. Their requests came thick and fast. Some said they would love to see me transfer from my bed to my wheelchair with a clear view of my feet and legs and someone else added they hoped I would have a few muscle spasms too. They were very upfront about what they like. \u000aI made a short film of me transferring from my wheelchair to my beloved car, but I almost cried beforehand because I felt so objectified.\u000aIf it was a performance and I could look really sexy that could be really fun, but actually what they're asking me to do is something I do every day and have difficulty with.\u000aWhile wandering through this world of devoteeism I have come across examples of troubling empowerment and exploitation but, at the same time, I've learnt something important and positive.\u000aI met many devotees along the way and some were really genuine, I understood them and liked them. \u000aEssentially what they were saying was, "Why should we exclude anybody when disabled people can be just as beautiful?" But I think there's also a problem when you fetishise something, that it can hamper you from having feelings for the full person.\u000aAm I here to judge devoteeism? Of course not. In fact, I believe that putting this otherwise hidden subject out in the open will help both devotees and disabled people to find what they are looking for, or what doesn't interest them.\u000aDo I want to ensure that we all have the knowledge and confidence to make our own sexual decisions, weighing up pros and cons, regardless of ability? Absolutely, and I hope my investigation is just the start of encouraging that conversation to flourish.\u000aFollow BBC Ouch on Twitter  and Facebook , and subscribe to the weekly podcast . \u000a
p2578
sg11
Vhttp://ichef-1.bbci.co.uk/news/1024/cpsprodpb/6590/production/_88700062_p03lh47m.jpg
p2579
sg13
(dp2580
g15
(dp2581
Vmixed
p2582
V1
sVscore
p2583
V-0.129494
p2584
sVtype
p2585
Vnegative
p2586
ssg22
(lp2587
(dp2588
Vscore
p2589
V0.629772
p2590
sVlabel
p2591
V/religion and spirituality/hinduism
p2592
sa(dp2593
Vconfident
p2594
Vno
p2595
sVscore
p2596
V0.363104
p2597
sVlabel
p2598
V/health and fitness/disorders/mental disorder/panic and anxiety
p2599
sa(dp2600
Vconfident
p2601
Vno
p2602
sVscore
p2603
V0.34429
p2604
sVlabel
p2605
V/law, govt and politics/government
p2606
sasg43
(lp2607
(dp2608
Vrelevance
p2609
V0.844966
p2610
sVcount
p2611
V5
sVtype
p2612
VCompany
p2613
sVdisambiguated
p2614
(dp2615
Vwebsite
p2616
Vhttp://www.bbc.co.uk
p2617
sVyago
p2618
Vhttp://yago-knowledge.org/resource/BBC
p2619
sVname
p2620
VBBC
p2621
sVfreebase
p2622
Vhttp://rdf.freebase.com/ns/m.0g5lhl7
p2623
sVopencyc
p2624
Vhttp://sw.opencyc.org/concept/Mx4rwMl8FpwpEbGdrcN5Y29ycA
p2625
sVsubType
p2626
(lp2627
VMusicalAlbum
p2628
aVBroadcast
p2629
aVPeriodicalPublisher
p2630
aVProductionCompany
p2631
aVTVNetwork
p2632
aVAwardNominee
p2633
aVAwardWinner
p2634
aVFilmDirector
p2635
aVFilmProducer
p2636
aVMusicalArtist
p2637
aVTVProducer
p2638
asVcrunchbase
p2639
Vhttp://www.crunchbase.com/company/bbc
p2640
sVdbpedia
p2641
Vhttp://dbpedia.org/resource/BBC
p2642
ssVtext
p2643
VBBC
p2644
sa(dp2645
Vrelevance
p2646
V0.773383
p2647
sVcount
p2648
V3
sVtype
p2649
VCompany
p2650
sVdisambiguated
p2651
(dp2652
Vwebsite
p2653
Vhttp://www.facebook.com/
p2654
sVyago
p2655
Vhttp://yago-knowledge.org/resource/Facebook
p2656
sVname
p2657
VFacebook
p2658
sVfreebase
p2659
Vhttp://rdf.freebase.com/ns/m.02y1vz
p2660
sVsubType
p2661
(lp2662
VWebsite
p2663
aVVentureFundedCompany
p2664
asVcrunchbase
p2665
Vhttp://www.crunchbase.com/company/facebook
p2666
sVdbpedia
p2667
Vhttp://dbpedia.org/resource/Facebook
p2668
ssVtext
p2669
VFacebook
p2670
sa(dp2671
Vrelevance
p2672
V0.705475
p2673
sVcount
p2674
V3
sVtype
p2675
VPerson
p2676
sVtext
p2677
VRuth Madison
p2678
sa(dp2679
Vrelevance
p2680
V0.680643
p2681
sVcount
p2682
V3
sVtype
p2683
VPerson
p2684
sVtext
p2685
VEmily Yates
p2686
sa(dp2687
Vrelevance
p2688
V0.628703
p2689
sVcount
p2690
V3
sVtype
p2691
VPerson
p2692
sVtext
p2693
VGray
p2694
sa(dp2695
Vrelevance
p2696
V0.49287
p2697
sVcount
p2698
V1
sVtype
p2699
VCity
p2700
sVdisambiguated
p2701
(dp2702
Vwebsite
p2703
Vhttp://www.emelbourne.net.au/
p2704
sVyago
p2705
Vhttp://yago-knowledge.org/resource/Melbourne
p2706
sVname
p2707
VMelbourne
p2708
sVfreebase
p2709
Vhttp://rdf.freebase.com/ns/m.0chgzm
p2710
sVsubType
p2711
(lp2712
VEnglishCivilParish
p2713
aVMilitaryPost
p2714
aVOlympicHostCity
p2715
asVdbpedia
p2716
Vhttp://dbpedia.org/resource/Melbourne
p2717
sVgeo
p2718
V-37.81361111111111 144.96305555555554
p2719
sVgeonames
p2720
Vhttp://sws.geonames.org/2158177/
p2721
ssVtext
p2722
VMelbourne
p2723
sa(dp2724
Vrelevance
p2725
V0.465494
p2726
sVcount
p2727
V1
sVtype
p2728
VHealthCondition
p2729
sVdisambiguated
p2730
(dp2731
VsubType
p2732
(lp2733
VSymptom
p2734
asVdbpedia
p2735
Vhttp://dbpedia.org/resource/Spasm
p2736
sVname
p2737
VSpasm
p2738
sVfreebase
p2739
Vhttp://rdf.freebase.com/ns/m.04zjnsf
p2740
ssVtext
p2741
Vmuscle spasms
p2742
sa(dp2743
Vrelevance
p2744
V0.465417
p2745
sVcount
p2746
V1
sVtype
p2747
VCity
p2748
sVtext
p2749
VNew York
p2750
sa(dp2751
Vrelevance
p2752
V0.438152
p2753
sVcount
p2754
V1
sVtype
p2755
VPerson
p2756
sVtext
p2757
VDevoteeism
p2758
sa(dp2759
Vrelevance
p2760
V0.436522
p2761
sVcount
p2762
V1
sVtype
p2763
VCountry
p2764
sVtext
p2765
VAustralia
p2766
sa(dp2767
Vrelevance
p2768
V0.428186
p2769
sVcount
p2770
V1
sVtype
p2771
VCountry
p2772
sVdisambiguated
p2773
(dp2774
Vwebsite
p2775
Vhttp://www.usa.gov/
p2776
sVyago
p2777
Vhttp://yago-knowledge.org/resource/United_States
p2778
sVname
p2779
VUnited States
p2780
sVfreebase
p2781
Vhttp://rdf.freebase.com/ns/m.09c7w0
p2782
sVopencyc
p2783
Vhttp://sw.opencyc.org/concept/Mx4rvVikKpwpEbGdrcN5Y29ycA
p2784
sVsubType
p2785
(lp2786
VLocation
p2787
aVRegion
p2788
aVAdministrativeDivision
p2789
aVGovernmentalJurisdiction
p2790
aVFilmEditor
p2791
asVdbpedia
p2792
Vhttp://dbpedia.org/resource/United_States
p2793
sVciaFactbook
p2794
Vhttp://www4.wiwiss.fu-berlin.de/factbook/resource/United_States
p2795
ssVtext
p2796
VUSA
p2797
sa(dp2798
Vrelevance
p2799
V0.420169
p2800
sVcount
p2801
V1
sVtype
p2802
VFieldTerminology
p2803
sVtext
p2804
Vspinal cord
p2805
sa(dp2806
Vrelevance
p2807
V0.390557
p2808
sVcount
p2809
V1
sVtype
p2810
VFieldTerminology
p2811
sVtext
p2812
Vsocial media
p2813
sa(dp2814
Vrelevance
p2815
V0.366918
p2816
sVcount
p2817
V1
sVtype
p2818
VCompany
p2819
sVdisambiguated
p2820
(dp2821
Vwebsite
p2822
Vhttp://twitter.com/
p2823
sVname
p2824
VTwitter
p2825
sVfreebase
p2826
Vhttp://rdf.freebase.com/ns/m.0289n8t
p2827
sVsubType
p2828
(lp2829
VWebsite
p2830
aVVentureFundedCompany
p2831
asVcrunchbase
p2832
Vhttp://www.crunchbase.com/company/twitter
p2833
sVdbpedia
p2834
Vhttp://dbpedia.org/resource/Twitter
p2835
ssVtext
p2836
VTwitter
p2837
sasg525
(dp2838
Vanger
p2839
V0.128516
p2840
sVjoy
p2841
V5e-05
p2842
sVfear
p2843
V0.005049
p2844
sVsadness
p2845
V0.018086
p2846
sVdisgust
p2847
V0.26456
p2848
ssg537
(lp2849
(dp2850
Vrelevance
p2851
V0.954526
p2852
sVtext
p2853
VDisability
p2854
sVopencyc
p2855
Vhttp://sw.opencyc.org/concept/Mx4rvc0ngZwpEbGdrcN5Y29ycA
p2856
sVdbpedia
p2857
Vhttp://dbpedia.org/resource/Disability
p2858
sVfreebase
p2859
Vhttp://rdf.freebase.com/ns/m.0fl5x
p2860
sa(dp2861
Vrelevance
p2862
V0.811504
p2863
sVtext
p2864
VWheelchair
p2865
sVopencyc
p2866
Vhttp://sw.opencyc.org/concept/Mx4rvVjwFpwpEbGdrcN5Y29ycA
p2867
sVdbpedia
p2868
Vhttp://dbpedia.org/resource/Wheelchair
p2869
sVfreebase
p2870
Vhttp://rdf.freebase.com/ns/m.0qmmr
p2871
sa(dp2872
Vwebsite
p2873
Vhttp://www.bbc.co.uk
p2874
sVyago
p2875
Vhttp://yago-knowledge.org/resource/BBC
p2876
sVtext
p2877
VBBC
p2878
sVopencyc
p2879
Vhttp://sw.opencyc.org/concept/Mx4rwMl8FpwpEbGdrcN5Y29ycA
p2880
sVcrunchbase
p2881
Vhttp://www.crunchbase.com/company/bbc
p2882
sVdbpedia
p2883
Vhttp://dbpedia.org/resource/BBC
p2884
sVfreebase
p2885
Vhttp://rdf.freebase.com/ns/m.0g5lhl7
p2886
sVrelevance
p2887
V0.641395
p2888
sa(dp2889
Vrelevance
p2890
V0.580704
p2891
sVtext
p2892
VDisability rights movement
p2893
sVyago
p2894
Vhttp://yago-knowledge.org/resource/Disability_rights_movement
p2895
sVdbpedia
p2896
Vhttp://dbpedia.org/resource/Disability_rights_movement
p2897
sVfreebase
p2898
Vhttp://rdf.freebase.com/ns/m.02890q
p2899
sa(dp2900
Vrelevance
p2901
V0.522619
p2902
sVtext
p2903
VSexual intercourse
p2904
sVdbpedia
p2905
Vhttp://dbpedia.org/resource/Sexual_intercourse
p2906
sVfreebase
p2907
Vhttp://rdf.freebase.com/ns/m.06vp9
p2908
sa(dp2909
Vrelevance
p2910
V0.472566
p2911
sVtext
p2912
VOrgasm
p2913
sVopencyc
p2914
Vhttp://sw.opencyc.org/concept/Mx4rwTl5npwpEbGdrcN5Y29ycA
p2915
sVdbpedia
p2916
Vhttp://dbpedia.org/resource/Orgasm
p2917
sVfreebase
p2918
Vhttp://rdf.freebase.com/ns/m.05n5y
p2919
sa(dp2920
Vrelevance
p2921
V0.452634
p2922
sVtext
p2923
VSexual arousal
p2924
sVopencyc
p2925
Vhttp://sw.opencyc.org/concept/Mx4rwMMe4ZwpEbGdrcN5Y29ycA
p2926
sVdbpedia
p2927
Vhttp://dbpedia.org/resource/Sexual_arousal
p2928
sVfreebase
p2929
Vhttp://rdf.freebase.com/ns/m.015053
p2930
sa(dp2931
Vrelevance
p2932
V0.428166
p2933
sVtext
p2934
VHuman sexuality
p2935
sVdbpedia
p2936
Vhttp://dbpedia.org/resource/Human_sexuality
p2937
sVfreebase
p2938
Vhttp://rdf.freebase.com/ns/m.03ngg
p2939
sasg629
(lp2940
(dp2941
Vrelevance
p2942
V0.995543
p2943
sVtext
p2944
Vdisabled people
p2945
sa(dp2946
Vrelevance
p2947
V0.83991
p2948
sVtext
p2949
Vdevotees
p2950
sa(dp2951
Vrelevance
p2952
V0.796779
p2953
sVtext
p2954
Vdisabled women
p2955
sa(dp2956
Vrelevance
p2957
V0.788459
p2958
sVtext
p2959
VEmily Yates
p2960
sa(dp2961
Vrelevance
p2962
V0.786553
p2963
sVtext
p2964
Vdevotee community
p2965
sa(dp2966
Vrelevance
p2967
V0.786535
p2968
sVtext
p2969
Vangry Facebook rant
p2970
sa(dp2971
Vrelevance
p2972
V0.780519
p2973
sVtext
p2974
Vpresenter Emily Yates
p2975
sa(dp2976
Vrelevance
p2977
V0.765677
p2978
sVtext
p2979
VBBC Ouch
p2980
sa(dp2981
Vrelevance
p2982
V0.7642
p2983
sVtext
p2984
VBBC Ouch talk-show
p2985
sa(dp2986
Vrelevance
p2987
V0.763726
p2988
sVtext
p2989
Vpretty dark stuff
p2990
sa(dp2991
Vrelevance
p2992
V0.741259
p2993
sVtext
p2994
Vbad devs
p2995
sa(dp2996
Vrelevance
p2997
V0.737543
p2998
sVtext
p2999
Vparticular fetish focuses
p3000
sa(dp3001
Vrelevance
p3002
V0.721367
p3003
sVtext
p3004
Vmundane everyday task
p3005
sa(dp3006
Vrelevance
p3007
V0.711093
p3008
sVtext
p3009
Vdisabled BBC
p3010
sa(dp3011
Vrelevance
p3012
V0.703225
p3013
sVtext
p3014
Vwheelchair
p3015
sa(dp3016
Vrelevance
p3017
V0.699245
p3018
sVtext
p3019
VMeet The Devotees
p3020
sa(dp3021
Vrelevance
p3022
V0.68403
p3023
sVtext
p3024
Vdisabled body
p3025
sa(dp3026
Vrelevance
p3027
V0.667582
p3028
sVtext
p3029
Vwheelchair user
p3030
sa(dp3031
Vrelevance
p3032
V0.661657
p3033
sVtext
p3034
Vdisabled person
p3035
sa(dp3036
Vrelevance
p3037
V0.660895
p3038
sVtext
p3039
Vteenage devotee
p3040
sa(dp3041
Vrelevance
p3042
V0.658954
p3043
sVtext
p3044
Vpretty cripple
p3045
sa(dp3046
Vrelevance
p3047
V0.656625
p3048
sVtext
p3049
Vsecond-hand wheelchair
p3050
sa(dp3051
Vrelevance
p3052
V0.654625
p3053
sVtext
p3054
Vfriendly comments
p3055
sa(dp3056
Vrelevance
p3057
V0.654235
p3058
sVtext
p3059
VNew York
p3060
sa(dp3061
Vrelevance
p3062
V0.652756
p3063
sVtext
p3064
Vdevotee porn
p3065
sa(dp3066
Vrelevance
p3067
V0.650156
p3068
sVtext
p3069
Vbiggest gesture
p3070
sa(dp3071
Vrelevance
p3072
V0.649222
p3073
sVtext
p3074
Vgreat evening
p3075
sa(dp3076
Vrelevance
p3077
V0.648005
p3078
sVtext
p3079
Vnegative terms
p3080
sa(dp3081
Vrelevance
p3082
V0.647098
p3083
sVtext
p3084
Vable-bodied partners
p3085
sa(dp3086
Vrelevance
p3087
V0.646612
p3088
sVtext
p3089
Vable-bodied women
p3090
sassg781
(lp3091
(dp3092
VfaceRectangle
p3093
(dp3094
Vwidth
p3095
I99
sVtop
p3096
I46
sVleft
p3097
I415
sVheight
p3098
I99
ssVscores
p3099
(dp3100
Vsadness
p3101
F0.0032793122800000001
sVneutral
p3102
F0.00344186556
sVcontempt
p3103
F0.0001184735
sVdisgust
p3104
F0.00134745543
sVanger
p3105
F2.3004797199999999e-05
sVsurprise
p3106
F0.0006213538
sVfear
p3107
F0.0038619185800000001
sVhappiness
p3108
F0.98730660000000003
ssasg817
(dp3109
g819
I6
sg820
I28
sg821
I10
sg822
I4
sg823
I886
sg824
I44
ssa(dp3110
g5
Vhttp://www.bbc.co.uk/news/world-europe-35794553?ocid=socialflow_facebook&ns_mchannel=social&ns_campaign=bbcnews&ns_source=facebook
p3111
sg7
VParis attacks: Girls quizzed over 'Bataclan-style plot'
p3112
sg9
VFrench authorities have opened a criminal investigation into two teenage girls suspected of planning an attack similar to the one on the Bataclan concert hall in Paris in November.\u000aThe girls, aged 15 and 17, had been exchanging messages on Facebook about the planned assault, police said.\u000aBoth girls appeared before an anti-terrorism judge on Friday. \u000aProsecutors said the alleged plan had been at an early stage and that neither weapons nor explosives had been found.\u000aFrance remains on high alert following the Paris attacks in which 130 people died, including 90 at the Bataclan.\u000aThe Paris prosecutor's office said the 15-year-old would remain in custody while the 17-year-old would be released under judicial supervision.\u000aThe girls, who have not been named, were arrested on Wednesday by counter-terrorism agents. \u000aThey are suspected of criminal conspiracy in connection with a terrorist undertaking, prosecutors said. \u000aTwo other girls have been questioned by police and released.\u000aThree gunmen wearing suicide vests stormed the Bataclan concert hall on 13 November 2015 during a rock concert. All three were later killed by security forces.\u000aOther gunmen attacked cafes, restaurants and the Stade de France stadium.\u000aFrance remains under a state of emergency following the attacks.\u000a
p3113
sg11
Vhttps://s3.amazonaws.com/prod-cust-photo-posts-jfaikqealaka/3065-3a72435b12d9a6ed33f027bf58d4d1b5.jpg
p3114
sg13
(dp3115
g15
(dp3116
Vmixed
p3117
V1
sVscore
p3118
V-0.513899
p3119
sVtype
p3120
Vnegative
p3121
ssg22
(lp3122
(dp3123
Vscore
p3124
V0.406682
p3125
sVlabel
p3126
V/law, govt and politics/law enforcement/police
p3127
sa(dp3128
Vconfident
p3129
Vno
p3130
sVscore
p3131
V0.339146
p3132
sVlabel
p3133
V/art and entertainment/shows and events/concert
p3134
sa(dp3135
Vconfident
p3136
Vno
p3137
sVscore
p3138
V0.312117
p3139
sVlabel
p3140
V/travel/tourist destinations/france
p3141
sasg43
(lp3142
(dp3143
Vrelevance
p3144
V0.888726
p3145
sVcount
p3146
V2
sVtype
p3147
VFacility
p3148
sVtext
p3149
VBataclan concert hall
p3150
sa(dp3151
Vrelevance
p3152
V0.870096
p3153
sVcount
p3154
V3
sVtype
p3155
VCity
p3156
sVdisambiguated
p3157
(dp3158
Vwebsite
p3159
Vhttp://www.paris.fr
p3160
sVyago
p3161
Vhttp://yago-knowledge.org/resource/Paris
p3162
sVgeonames
p3163
Vhttp://sws.geonames.org/2988507/
p3164
sVfreebase
p3165
Vhttp://rdf.freebase.com/ns/m.05qtj
p3166
sVsubType
p3167
(lp3168
VAdministrativeDivision
p3169
aVFrenchDepartment
p3170
aVGovernmentalJurisdiction
p3171
aVOlympicBiddingCity
p3172
aVOlympicHostCity
p3173
aVPlaceWithNeighborhoods
p3174
asVdbpedia
p3175
Vhttp://dbpedia.org/resource/Paris
p3176
sVname
p3177
VParis
p3178
ssVtext
p3179
VParis
p3180
sa(dp3181
Vrelevance
p3182
V0.676645
p3183
sVcount
p3184
V2
sVtype
p3185
VCountry
p3186
sVdisambiguated
p3187
(dp3188
Vwebsite
p3189
Vhttp://www.service-public.fr/etranger/english.html
p3190
sVyago
p3191
Vhttp://yago-knowledge.org/resource/France
p3192
sVname
p3193
VFrance
p3194
sVfreebase
p3195
Vhttp://rdf.freebase.com/ns/m.0f8l9c
p3196
sVopencyc
p3197
Vhttp://sw.opencyc.org/concept/Mx4rvVj6EJwpEbGdrcN5Y29ycA
p3198
sVsubType
p3199
(lp3200
VLocation
p3201
aVRegion
p3202
aVAdministrativeDivision
p3203
aVGovernmentalJurisdiction
p3204
aVFilmDirector
p3205
asVdbpedia
p3206
Vhttp://dbpedia.org/resource/France
p3207
sVciaFactbook
p3208
Vhttp://www4.wiwiss.fu-berlin.de/factbook/resource/France
p3209
sVgeo
p3210
V47.0 2.0
p3211
ssVtext
p3212
VFrance
p3213
sa(dp3214
Vrelevance
p3215
V0.619918
p3216
sVcount
p3217
V1
sVtype
p3218
VFacility
p3219
sVtext
p3220
VStade de France stadium
p3221
sa(dp3222
Vrelevance
p3223
V0.496286
p3224
sVcount
p3225
V1
sVtype
p3226
VCompany
p3227
sVdisambiguated
p3228
(dp3229
Vwebsite
p3230
Vhttp://www.facebook.com/
p3231
sVyago
p3232
Vhttp://yago-knowledge.org/resource/Facebook
p3233
sVname
p3234
VFacebook
p3235
sVfreebase
p3236
Vhttp://rdf.freebase.com/ns/m.02y1vz
p3237
sVsubType
p3238
(lp3239
VWebsite
p3240
aVVentureFundedCompany
p3241
asVcrunchbase
p3242
Vhttp://www.crunchbase.com/company/facebook
p3243
sVdbpedia
p3244
Vhttp://dbpedia.org/resource/Facebook
p3245
ssVtext
p3246
VFacebook
p3247
sa(dp3248
Vrelevance
p3249
V0.431531
p3250
sVcount
p3251
V1
sVtype
p3252
VCrime
p3253
sVtext
p3254
Vassault
p3255
sa(dp3256
Vrelevance
p3257
V0.395281
p3258
sVcount
p3259
V1
sVtype
p3260
VCity
p3261
sVtext
p3262
VBataclan
p3263
sa(dp3264
Vrelevance
p3265
V0.387195
p3266
sVcount
p3267
V1
sVtype
p3268
VJobTitle
p3269
sVtext
p3270
Vprosecutor
p3271
sa(dp3272
Vrelevance
p3273
V0.387195
p3274
sVcount
p3275
V1
sVtype
p3276
VQuantity
p3277
sVtext
p3278
V15-year
p3279
sa(dp3280
Vrelevance
p3281
V0.387195
p3282
sVcount
p3283
V1
sVtype
p3284
VQuantity
p3285
sVtext
p3286
V17-year
p3287
sasg525
(dp3288
Vanger
p3289
V0.073326
p3290
sVjoy
p3291
V0.000271
p3292
sVfear
p3293
V0.278592
p3294
sVsadness
p3295
V0.009665
p3296
sVdisgust
p3297
V0.3075
p3298
ssg537
(lp3299
(dp3300
Vrelevance
p3301
V0.957916
p3302
sVtext
p3303
VCriminal law
p3304
sVopencyc
p3305
Vhttp://sw.opencyc.org/concept/Mx4r_H7Z9rvWEdmAAAACs6hRjg
p3306
sVdbpedia
p3307
Vhttp://dbpedia.org/resource/Criminal_law
p3308
sVfreebase
p3309
Vhttp://rdf.freebase.com/ns/m.01n5w
p3310
sa(dp3311
Vyago
p3312
Vhttp://yago-knowledge.org/resource/Stade_de_France
p3313
sVtext
p3314
VStade de France
p3315
sVdbpedia
p3316
Vhttp://dbpedia.org/resource/Stade_de_France
p3317
sVfreebase
p3318
Vhttp://rdf.freebase.com/ns/m.038xg3
p3319
sVrelevance
p3320
V0.954422
p3321
sVgeo
p3322
V48.92444444444445 2.36
p3323
sa(dp3324
Vrelevance
p3325
V0.915022
p3326
sVtext
p3327
VJudge
p3328
sVopencyc
p3329
Vhttp://sw.opencyc.org/concept/Mx4rvVi68pwpEbGdrcN5Y29ycA
p3330
sVdbpedia
p3331
Vhttp://dbpedia.org/resource/Judge
p3332
sVfreebase
p3333
Vhttp://rdf.freebase.com/ns/m.0c5lg
p3334
sa(dp3335
Vrelevance
p3336
V0.898796
p3337
sVtext
p3338
VAttack
p3339
sVdbpedia
p3340
Vhttp://dbpedia.org/resource/Attack
p3341
sa(dp3342
Vrelevance
p3343
V0.838076
p3344
sVtext
p3345
VAttack!
p3346
sVdbpedia
p3347
Vhttp://dbpedia.org/resource/Attack!_(board_game)
p3348
sVfreebase
p3349
Vhttp://rdf.freebase.com/ns/m.05p6q8
p3350
sa(dp3351
Vrelevance
p3352
V0.792444
p3353
sVtext
p3354
VTerrorism
p3355
sVopencyc
p3356
Vhttp://sw.opencyc.org/concept/Mx4rvViTlZwpEbGdrcN5Y29ycA
p3357
sVdbpedia
p3358
Vhttp://dbpedia.org/resource/Terrorism
p3359
sVfreebase
p3360
Vhttp://rdf.freebase.com/ns/m.07jq_
p3361
sa(dp3362
Vrelevance
p3363
V0.759892
p3364
sVtext
p3365
V1998 FIFA World Cup
p3366
sVyago
p3367
Vhttp://yago-knowledge.org/resource/1998_FIFA_World_Cup
p3368
sVdbpedia
p3369
Vhttp://dbpedia.org/resource/1998_FIFA_World_Cup
p3370
sVfreebase
p3371
Vhttp://rdf.freebase.com/ns/m.0x_x3
p3372
sa(dp3373
Vrelevance
p3374
V0.747929
p3375
sVtext
p3376
VProsecutor
p3377
sVopencyc
p3378
Vhttp://sw.opencyc.org/concept/Mx4rlL5kmLrMEdaAAAACs6Mw3A
p3379
sVdbpedia
p3380
Vhttp://dbpedia.org/resource/Prosecutor
p3381
sVfreebase
p3382
Vhttp://rdf.freebase.com/ns/m.028w3j
p3383
sasg629
(lp3384
(dp3385
Vrelevance
p3386
V0.925444
p3387
sVtext
p3388
VBataclan concert hall
p3389
sa(dp3390
Vrelevance
p3391
V0.616748
p3392
sVtext
p3393
Vanti-terrorism judge
p3394
sa(dp3395
Vrelevance
p3396
V0.616199
p3397
sVtext
p3398
VFrench authorities
p3399
sa(dp3400
Vrelevance
p3401
V0.61271
p3402
sVtext
p3403
Vplanned assault
p3404
sa(dp3405
Vrelevance
p3406
V0.607405
p3407
sVtext
p3408
Vteenage girls
p3409
sa(dp3410
Vrelevance
p3411
V0.602303
p3412
sVtext
p3413
Vcounter-terrorism agents
p3414
sa(dp3415
Vrelevance
p3416
V0.601145
p3417
sVtext
p3418
Vcriminal investigation
p3419
sa(dp3420
Vrelevance
p3421
V0.594603
p3422
sVtext
p3423
Vterrorist undertaking
p3424
sa(dp3425
Vrelevance
p3426
V0.589547
p3427
sVtext
p3428
Vjudicial supervision
p3429
sa(dp3430
Vrelevance
p3431
V0.589495
p3432
sVtext
p3433
Vhigh alert
p3434
sa(dp3435
Vrelevance
p3436
V0.588645
p3437
sVtext
p3438
Vearly stage
p3439
sa(dp3440
Vrelevance
p3441
V0.587323
p3442
sVtext
p3443
VParis attacks
p3444
sa(dp3445
Vrelevance
p3446
V0.581356
p3447
sVtext
p3448
Vsuicide vests
p3449
sa(dp3450
Vrelevance
p3451
V0.580535
p3452
sVtext
p3453
VParis prosecutor
p3454
sa(dp3455
Vrelevance
p3456
V0.573975
p3457
sVtext
p3458
Vsecurity forces
p3459
sa(dp3460
Vrelevance
p3461
V0.573948
p3462
sVtext
p3463
Vcriminal conspiracy
p3464
sa(dp3465
Vrelevance
p3466
V0.565889
p3467
sVtext
p3468
VFrance stadium
p3469
sa(dp3470
Vrelevance
p3471
V0.561306
p3472
sVtext
p3473
Vrock concert
p3474
sa(dp3475
Vrelevance
p3476
V0.498269
p3477
sVtext
p3478
Vgunmen
p3479
sa(dp3480
Vrelevance
p3481
V0.496107
p3482
sVtext
p3483
Vprosecutors
p3484
sa(dp3485
Vrelevance
p3486
V0.468711
p3487
sVtext
p3488
Vpolice
p3489
sa(dp3490
Vrelevance
p3491
V0.451391
p3492
sVtext
p3493
VStade
p3494
sa(dp3495
Vrelevance
p3496
V0.450332
p3497
sVtext
p3498
VFacebook
p3499
sa(dp3500
Vrelevance
p3501
V0.443487
p3502
sVtext
p3503
Vexplosives
p3504
sa(dp3505
Vrelevance
p3506
V0.441188
p3507
sVtext
p3508
Vcafes
p3509
sa(dp3510
Vrelevance
p3511
V0.436434
p3512
sVtext
p3513
VFriday
p3514
sa(dp3515
Vrelevance
p3516
V0.43614
p3517
sVtext
p3518
Vmessages
p3519
sa(dp3520
Vrelevance
p3521
V0.435364
p3522
sVtext
p3523
Vcustody
p3524
sa(dp3525
Vrelevance
p3526
V0.43363
p3527
sVtext
p3528
VWednesday
p3529
sa(dp3530
Vrelevance
p3531
V0.432672
p3532
sVtext
p3533
Vpeople
p3534
sassg781
(lp3535
sg817
(dp3536
g819
I1
sg820
I31
sg821
I0
sg822
I29
sg823
I1283
sg824
I9
ssa(dp3537
g5
Vhttp://www.bbc.co.uk/news/blogs-trending-35758163?ocid=socialflow_facebook&ns_mchannel=social&ns_campaign=bbcnews&ns_source=facebook
p3538
sg7
VClinton makes gaffe when discussing Nancy Reagan
p3539
sg9
V US Democrat presidential hopeful Hillary Clinton has praised late former first lady Nancy Reagan for starting a "national conversation" on Aids. \u000aBut activists criticised the remarks, saying they masked an ugly legacy. \u000aThe row came as diplomats, politicians and celebrities attended the funeral of Mrs Reagan, who died this week aged 94.\u000aIn an interview with MSNBC, Mrs Clinton praised both Nancy and Ronald Reagan for their "low key advocacy" around Aids. \u000a"It may be hard for your viewers to remember how difficult it was for people to talk about HIV/Aids in the 1980s," Mrs Clinton said. "And because of both President and Mrs Reagan - in particular Mrs Reagan - we started a national conversation."\u000aMany historians and Aids activists responded by pointing out that the Reagan administration was famous for being too slow to respond to the Aids crisis, and too callous when it did. \u000a"Hillary Clinton needs to walk this back immediately or she risks losing the votes of millions of queer Americans who survived the plague," Dan Savage wrote in a blog post at The Stranger. \u000a"We watched our friends and lovers die by the tens of thousands while Nancy and Ronnie sat silently in the White House.\u000a"I'm literally shaking as I try to write this. There are no words for the pain Clinton's remarks have dredged up. I'm supposed to be writing a column - it's way overdue - but all I can think about right now are all of my dead friends, lovely guys who might still be with us if Nancy and Ronald Reagan had started a national conversation about HIV/Aids."\u000aChris Geidner at Buzzfeed recently wrote a long article about how Nancy Reagan denied a personal plea from Rock Hudson for access to an Aids treatment facility. On Twitter, he wrote "The White House did not decide that Aids would be an issue to 'get into' until nearly two years after Hudson's death," in 1985. \u000aRonald Reagan made his first public speech about Aids in 1987.\u000aOthers cited a 1982 press conference where White House spokesman Larry Speakes laughed off a reporter's questions about Aids.\u000a"This was the 'national conversation' that the Reagans started about Aids: laughing at the victims of a 'gay plague'," wrote science writer Steve Silberman. \u000aPeter Staley, an Aids activist who came to prominence during the Reagan administration, tweeted his disbelief at Clinton's remarks. "Did a BernieBro possess @HillaryClinton to say the most offensive thing possible 4 my generation of LGBT Americans?" \u000aAfter a few hours of online outrage, Clinton tweeted an apology: "While the Reagans were strong advocates for stem cell research and finding a cure for Alzheimer's disease, I misspoke about their records on HIV and Aids. For that, I am sorry." \u000aBut the damage has been done. \u000a"Insulting to imply that advocacy for Alzheimer's long after out of office in any way balances Reagan Aids record," wrote New York Magazine's Frank Rich. \u000a"Not. Good. Enough," tweeted Savage. \u000aNext story: A music video about gay love was so controversial that Kenya's media watchdog tried to ban it.  But the censors attempt to stop people watching didn't quite go as planned. SEE MORE \u000a
p3540
sg11
Vhttps://s3.amazonaws.com/prod-cust-photo-posts-jfaikqealaka/3065-cb7c2c2c192057acbe705fcc9428df26.jpg
p3541
sg13
(dp3542
g15
(dp3543
Vmixed
p3544
V1
sVscore
p3545
V-0.474503
p3546
sVtype
p3547
Vnegative
p3548
ssg22
(lp3549
(dp3550
Vscore
p3551
V0.466296
p3552
sVlabel
p3553
V/health and fitness/disease/aids and hiv
p3554
sa(dp3555
Vconfident
p3556
Vno
p3557
sVscore
p3558
V0.311997
p3559
sVlabel
p3560
V/society/gay life
p3561
sa(dp3562
Vconfident
p3563
Vno
p3564
sVscore
p3565
V0.2926
p3566
sVlabel
p3567
V/law, govt and politics/legal issues/human rights
p3568
sasg43
(lp3569
(dp3570
Vrelevance
p3571
V0.926822
p3572
sVcount
p3573
V7
sVtype
p3574
VPerson
p3575
sVdisambiguated
p3576
(dp3577
Vyago
p3578
Vhttp://yago-knowledge.org/resource/Nancy_Reagan
p3579
sVname
p3580
VNancy Reagan
p3581
sVfreebase
p3582
Vhttp://rdf.freebase.com/ns/m.059rv
p3583
sVopencyc
p3584
Vhttp://sw.opencyc.org/concept/Mx4rwPSJc5wpEbGdrcN5Y29ycA
p3585
sVsubType
p3586
(lp3587
VAwardWinner
p3588
aVOfficeHolder
p3589
aVFilmActor
p3590
aVTVActor
p3591
asVdbpedia
p3592
Vhttp://dbpedia.org/resource/Nancy_Reagan
p3593
ssVtext
p3594
VNancy Reagan
p3595
sa(dp3596
Vrelevance
p3597
V0.737217
p3598
sVcount
p3599
V8
sVtype
p3600
VPerson
p3601
sVdisambiguated
p3602
(dp3603
Vwebsite
p3604
Vhttp://www.state.gov/secretary/index.htm
p3605
sVyago
p3606
Vhttp://yago-knowledge.org/resource/Hillary_Rodham_Clinton
p3607
sVname
p3608
VHillary Rodham Clinton
p3609
sVfreebase
p3610
Vhttp://rdf.freebase.com/ns/m.0d06m5
p3611
sVopencyc
p3612
Vhttp://sw.opencyc.org/concept/Mx4rvV7SqpwpEbGdrcN5Y29ycA
p3613
sVsubType
p3614
(lp3615
VPolitician
p3616
aVAppointee
p3617
aVAwardWinner
p3618
aVBoardMember
p3619
aVCelebrity
p3620
aVHallOfFameInductee
p3621
aVOperaCharacter
p3622
aVSenator
p3623
aVU.S.Congressperson
p3624
aVTVActor
p3625
asVdbpedia
p3626
Vhttp://dbpedia.org/resource/Hillary_Rodham_Clinton
p3627
ssVtext
p3628
VHillary Clinton
p3629
sa(dp3630
Vrelevance
p3631
V0.679724
p3632
sVcount
p3633
V8
sVtype
p3634
VHealthCondition
p3635
sVdisambiguated
p3636
(dp3637
Vyago
p3638
Vhttp://yago-knowledge.org/resource/AIDS
p3639
sVname
p3640
VAIDS
p3641
sVfreebase
p3642
Vhttp://rdf.freebase.com/ns/m.0d19y2
p3643
sVopencyc
p3644
Vhttp://sw.opencyc.org/concept/Mx4rwP1LGpwpEbGdrcN5Y29ycA
p3645
sVsubType
p3646
(lp3647
VOrganization
p3648
aVDiseaseOrMedicalCondition
p3649
aVCauseOfDeath
p3650
aVDiseaseCause
p3651
aVRiskFactor
p3652
aVDisease
p3653
aVOrganizationSector
p3654
asVdbpedia
p3655
Vhttp://dbpedia.org/resource/AIDS
p3656
ssVtext
p3657
VAids
p3658
sa(dp3659
Vrelevance
p3660
V0.553772
p3661
sVcount
p3662
V3
sVtype
p3663
VPerson
p3664
sVdisambiguated
p3665
(dp3666
Vyago
p3667
Vhttp://yago-knowledge.org/resource/Ronald_Reagan
p3668
sVname
p3669
VRonald Reagan
p3670
sVfreebase
p3671
Vhttp://rdf.freebase.com/ns/m.06c0j
p3672
sVopencyc
p3673
Vhttp://sw.opencyc.org/concept/Mx4rvVjDZ5wpEbGdrcN5Y29ycA
p3674
sVsubType
p3675
(lp3676
VPolitician
p3677
aVPresident
p3678
aVAwardWinner
p3679
aVChivalricOrderMember
p3680
aVMilitaryPerson
p3681
aVPoliticalAppointer
p3682
aVUSPresident
p3683
aVFilmActor
p3684
aVTVActor
p3685
asVdbpedia
p3686
Vhttp://dbpedia.org/resource/Ronald_Reagan
p3687
ssVtext
p3688
VRonald Reagan
p3689
sa(dp3690
Vrelevance
p3691
V0.428689
p3692
sVcount
p3693
V2
sVtype
p3694
VOrganization
p3695
sVtext
p3696
VReagan administration
p3697
sa(dp3698
Vrelevance
p3699
V0.375823
p3700
sVcount
p3701
V1
sVtype
p3702
VPerson
p3703
sVtext
p3704
VMrs Reagan
p3705
sa(dp3706
Vrelevance
p3707
V0.28305
p3708
sVcount
p3709
V1
sVtype
p3710
VPerson
p3711
sVtext
p3712
VReagan
p3713
sa(dp3714
Vrelevance
p3715
V0.239929
p3716
sVcount
p3717
V2
sVtype
p3718
VFacility
p3719
sVtext
p3720
VWhite House
p3721
sa(dp3722
Vrelevance
p3723
V0.204533
p3724
sVcount
p3725
V1
sVtype
p3726
VCountry
p3727
sVdisambiguated
p3728
(dp3729
Vwebsite
p3730
Vhttp://www.usa.gov/
p3731
sVyago
p3732
Vhttp://yago-knowledge.org/resource/United_States
p3733
sVname
p3734
VUnited States
p3735
sVfreebase
p3736
Vhttp://rdf.freebase.com/ns/m.09c7w0
p3737
sVopencyc
p3738
Vhttp://sw.opencyc.org/concept/Mx4rvVikKpwpEbGdrcN5Y29ycA
p3739
sVsubType
p3740
(lp3741
VLocation
p3742
aVRegion
p3743
aVAdministrativeDivision
p3744
aVGovernmentalJurisdiction
p3745
aVFilmEditor
p3746
asVdbpedia
p3747
Vhttp://dbpedia.org/resource/United_States
p3748
sVciaFactbook
p3749
Vhttp://www4.wiwiss.fu-berlin.de/factbook/resource/United_States
p3750
ssVtext
p3751
VUS
p3752
sa(dp3753
Vrelevance
p3754
V0.201718
p3755
sVcount
p3756
V1
sVtype
p3757
VPerson
p3758
sVdisambiguated
p3759
(dp3760
Vyago
p3761
Vhttp://yago-knowledge.org/resource/Dan_Savage
p3762
sVsubType
p3763
(lp3764
VAwardNominee
p3765
aVAwardWinner
p3766
asVdbpedia
p3767
Vhttp://dbpedia.org/resource/Dan_Savage
p3768
sVname
p3769
VDan Savage
p3770
sVfreebase
p3771
Vhttp://rdf.freebase.com/ns/m.020p0p
p3772
ssVtext
p3773
VDan Savage
p3774
sa(dp3775
Vrelevance
p3776
V0.201679
p3777
sVcount
p3778
V3
sVtype
p3779
VCity
p3780
sVtext
p3781
VRock Hudson
p3782
sa(dp3783
Vrelevance
p3784
V0.1915
p3785
sVcount
p3786
V1
sVtype
p3787
VCompany
p3788
sVdisambiguated
p3789
(dp3790
Vwebsite
p3791
Vhttp://www.msnbc.msn.com/id/3096434/
p3792
sVyago
p3793
Vhttp://yago-knowledge.org/resource/MSNBC
p3794
sVname
p3795
VMSNBC
p3796
sVfreebase
p3797
Vhttp://rdf.freebase.com/ns/m.0152x_
p3798
sVsubType
p3799
(lp3800
VBroadcast
p3801
aVTVNetwork
p3802
asVcrunchbase
p3803
Vhttp://www.crunchbase.com/company/msnbc
p3804
sVdbpedia
p3805
Vhttp://dbpedia.org/resource/MSNBC
p3806
ssVtext
p3807
VMSNBC
p3808
sa(dp3809
Vrelevance
p3810
V0.18683
p3811
sVcount
p3812
V1
sVtype
p3813
VCountry
p3814
sVdisambiguated
p3815
(dp3816
Vwebsite
p3817
Vhttp://www.kenya.go.ke/
p3818
sVyago
p3819
Vhttp://yago-knowledge.org/resource/Kenya
p3820
sVname
p3821
VKenya
p3822
sVfreebase
p3823
Vhttp://rdf.freebase.com/ns/m.019rg5
p3824
sVopencyc
p3825
Vhttp://sw.opencyc.org/concept/Mx4rvViFJZwpEbGdrcN5Y29ycA
p3826
sVsubType
p3827
(lp3828
VLocation
p3829
aVGovernmentalJurisdiction
p3830
aVBoardMember
p3831
asVdbpedia
p3832
Vhttp://dbpedia.org/resource/Kenya
p3833
sVciaFactbook
p3834
Vhttp://www4.wiwiss.fu-berlin.de/factbook/resource/Kenya
p3835
sVgeo
p3836
V-1.2666666666666666 36.8
p3837
ssVtext
p3838
VKenya
p3839
sa(dp3840
Vrelevance
p3841
V0.18625
p3842
sVcount
p3843
V1
sVtype
p3844
VPerson
p3845
sVdisambiguated
p3846
(dp3847
Vyago
p3848
Vhttp://yago-knowledge.org/resource/Larry_Speakes
p3849
sVsubType
p3850
(lp3851
VPolitician
p3852
asVdbpedia
p3853
Vhttp://dbpedia.org/resource/Larry_Speakes
p3854
sVname
p3855
VLarry Speakes
p3856
sVfreebase
p3857
Vhttp://rdf.freebase.com/ns/m.0562c5
p3858
ssVtext
p3859
VLarry Speakes
p3860
sa(dp3861
Vrelevance
p3862
V0.186199
p3863
sVcount
p3864
V1
sVtype
p3865
VOrganization
p3866
sVtext
p3867
VWhite House
p3868
sa(dp3869
Vrelevance
p3870
V0.179929
p3871
sVcount
p3872
V1
sVtype
p3873
VHealthCondition
p3874
sVdisambiguated
p3875
(dp3876
Vyago
p3877
Vhttp://yago-knowledge.org/resource/Alzheimer's_disease
p3878
sVname
p3879
VAlzheimer's disease
p3880
sVfreebase
p3881
Vhttp://rdf.freebase.com/ns/m.0dcsx
p3882
sVopencyc
p3883
Vhttp://sw.opencyc.org/concept/Mx4rviy5ipwpEbGdrcN5Y29ycA
p3884
sVsubType
p3885
(lp3886
VDiseaseOrMedicalCondition
p3887
aVCauseOfDeath
p3888
aVDiseaseCause
p3889
aVRiskFactor
p3890
aVOrganizationSector
p3891
asVdbpedia
p3892
Vhttp://dbpedia.org/resource/Alzheimer's_disease
p3893
ssVtext
p3894
VAlzheimer
p3895
sa(dp3896
Vrelevance
p3897
V0.179742
p3898
sVcount
p3899
V1
sVtype
p3900
VCompany
p3901
sVdisambiguated
p3902
(dp3903
Vwebsite
p3904
Vhttp://twitter.com/
p3905
sVname
p3906
VTwitter
p3907
sVfreebase
p3908
Vhttp://rdf.freebase.com/ns/m.0289n8t
p3909
sVsubType
p3910
(lp3911
VWebsite
p3912
aVVentureFundedCompany
p3913
asVcrunchbase
p3914
Vhttp://www.crunchbase.com/company/twitter
p3915
sVdbpedia
p3916
Vhttp://dbpedia.org/resource/Twitter
p3917
ssVtext
p3918
VTwitter
p3919
sa(dp3920
Vrelevance
p3921
V0.177751
p3922
sVcount
p3923
V1
sVtype
p3924
VPerson
p3925
sVtext
p3926
VChris Geidner
p3927
sa(dp3928
Vrelevance
p3929
V0.174039
p3930
sVcount
p3931
V1
sVtype
p3932
VJobTitle
p3933
sVtext
p3934
VPresident
p3935
sa(dp3936
Vrelevance
p3937
V0.171203
p3938
sVcount
p3939
V1
sVtype
p3940
VPerson
p3941
sVtext
p3942
VPeter Staley
p3943
sa(dp3944
Vrelevance
p3945
V0.170852
p3946
sVcount
p3947
V1
sVtype
p3948
VCompany
p3949
sVdisambiguated
p3950
(dp3951
VsubType
p3952
(lp3953
VWebsite
p3954
asVdbpedia
p3955
Vhttp://dbpedia.org/resource/BuzzFeed
p3956
sVname
p3957
VBuzzFeed
p3958
sVfreebase
p3959
Vhttp://rdf.freebase.com/ns/m.076vlrm
p3960
ssVtext
p3961
VBuzzfeed
p3962
sa(dp3963
Vrelevance
p3964
V0.169535
p3965
sVcount
p3966
V1
sVtype
p3967
VFieldTerminology
p3968
sVtext
p3969
Vmedia watchdog
p3970
sa(dp3971
Vrelevance
p3972
V0.167458
p3973
sVcount
p3974
V1
sVtype
p3975
VPerson
p3976
sVtext
p3977
VSteve Silberman
p3978
sa(dp3979
Vrelevance
p3980
V0.164372
p3981
sVcount
p3982
V1
sVtype
p3983
VPerson
p3984
sVdisambiguated
p3985
(dp3986
Vwebsite
p3987
Vhttp://www.frankrich.com/
p3988
sVyago
p3989
Vhttp://yago-knowledge.org/resource/Frank_Rich
p3990
sVname
p3991
VFrank Rich
p3992
sVfreebase
p3993
Vhttp://rdf.freebase.com/ns/m.06fp1s
p3994
sVsubType
p3995
(lp3996
VTVActor
p3997
asVdbpedia
p3998
Vhttp://dbpedia.org/resource/Frank_Rich
p3999
ssVtext
p4000
VFrank Rich
p4001
sa(dp4002
Vrelevance
p4003
V0.164248
p4004
sVcount
p4005
V1
sVtype
p4006
VPrintMedia
p4007
sVdisambiguated
p4008
(dp4009
Vwebsite
p4010
Vhttp://www.nymag.com
p4011
sVyago
p4012
Vhttp://yago-knowledge.org/resource/New_York_(magazine)
p4013
sVname
p4014
VNew York (magazine)
p4015
sVfreebase
p4016
Vhttp://rdf.freebase.com/ns/m.0354wf
p4017
sVsubType
p4018
(lp4019
VOrganization
p4020
aVCompany
p4021
aVMagazine
p4022
asVdbpedia
p4023
Vhttp://dbpedia.org/resource/New_York_(magazine)
p4024
ssVtext
p4025
VNew York Magazine
p4026
sa(dp4027
Vrelevance
p4028
V0.162329
p4029
sVcount
p4030
V1
sVtype
p4031
VHealthCondition
p4032
sVdisambiguated
p4033
(dp4034
Vyago
p4035
Vhttp://yago-knowledge.org/resource/HIV
p4036
sVname
p4037
VHIV
p4038
sVfreebase
p4039
Vhttp://rdf.freebase.com/ns/m.03p41
p4040
sVopencyc
p4041
Vhttp://sw.opencyc.org/concept/Mx4rwPvQnZwpEbGdrcN5Y29ycA
p4042
sVsubType
p4043
(lp4044
VOrganismClassification
p4045
aVDiseaseOrMedicalCondition
p4046
aVCauseOfDeath
p4047
aVInfectiousDisease
p4048
aVRiskFactor
p4049
aVMedicalSpecialty
p4050
asVdbpedia
p4051
Vhttp://dbpedia.org/resource/HIV
p4052
ssVtext
p4053
VHIV
p4054
sa(dp4055
Vrelevance
p4056
V0.162209
p4057
sVcount
p4058
V1
sVtype
p4059
VHealthCondition
p4060
sVtext
p4061
VAlzheimer's disease
p4062
sa(dp4063
Vrelevance
p4064
V0.154308
p4065
sVcount
p4066
V1
sVtype
p4067
VFieldTerminology
p4068
sVtext
p4069
Vstem cell research
p4070
sa(dp4071
Vrelevance
p4072
V0.153013
p4073
sVcount
p4074
V1
sVtype
p4075
VJobTitle
p4076
sVtext
p4077
Vreporter
p4078
sa(dp4079
Vrelevance
p4080
V0.151275
p4081
sVcount
p4082
V1
sVtype
p4083
VJobTitle
p4084
sVtext
p4085
Vwriter
p4086
sasg525
(dp4087
Vanger
p4088
V0.181473
p4089
sVjoy
p4090
V0.000185
p4091
sVfear
p4092
V0.00254
p4093
sVsadness
p4094
V0.007868
p4095
sVdisgust
p4096
V0.719613
p4097
ssg537
(lp4098
(dp4099
Vyago
p4100
Vhttp://yago-knowledge.org/resource/Ronald_Reagan
p4101
sVtext
p4102
VRonald Reagan
p4103
sVopencyc
p4104
Vhttp://sw.opencyc.org/concept/Mx4rvVjDZ5wpEbGdrcN5Y29ycA
p4105
sVdbpedia
p4106
Vhttp://dbpedia.org/resource/Ronald_Reagan
p4107
sVfreebase
p4108
Vhttp://rdf.freebase.com/ns/m.06c0j
p4109
sVrelevance
p4110
V0.963871
p4111
sa(dp4112
Vyago
p4113
Vhttp://yago-knowledge.org/resource/AIDS
p4114
sVtext
p4115
VAIDS
p4116
sVopencyc
p4117
Vhttp://sw.opencyc.org/concept/Mx4rwP1LGpwpEbGdrcN5Y29ycA
p4118
sVdbpedia
p4119
Vhttp://dbpedia.org/resource/AIDS
p4120
sVfreebase
p4121
Vhttp://rdf.freebase.com/ns/m.0d19y2
p4122
sVrelevance
p4123
V0.813552
p4124
sa(dp4125
Vrelevance
p4126
V0.796573
p4127
sVtext
p4128
VFirst Lady of the United States
p4129
sVwebsite
p4130
Vhttp://www.whitehouse.gov/about/first_ladies/
p4131
sVdbpedia
p4132
Vhttp://dbpedia.org/resource/First_Lady_of_the_United_States
p4133
sVfreebase
p4134
Vhttp://rdf.freebase.com/ns/m.02xy5
p4135
sa(dp4136
Vwebsite
p4137
Vhttp://www.democrats.org/
p4138
sVyago
p4139
Vhttp://yago-knowledge.org/resource/Democratic_Party_(United_States)
p4140
sVtext
p4141
VDemocratic Party
p4142
sVopencyc
p4143
Vhttp://sw.opencyc.org/concept/Mx4rvVifoZwpEbGdrcN5Y29ycA
p4144
sVdbpedia
p4145
Vhttp://dbpedia.org/resource/Democratic_Party_(United_States)
p4146
sVfreebase
p4147
Vhttp://rdf.freebase.com/ns/m.0d075m
p4148
sVrelevance
p4149
V0.648023
p4150
sa(dp4151
Vwebsite
p4152
Vhttp://www.whitehouse.gov/administration/president_obama/
p4153
sVyago
p4154
Vhttp://yago-knowledge.org/resource/President_of_the_United_States
p4155
sVtext
p4156
VPresident of the United States
p4157
sVopencyc
p4158
Vhttp://sw.opencyc.org/concept/Mx4rwQBS0ZwpEbGdrcN5Y29ycA
p4159
sVdbpedia
p4160
Vhttp://dbpedia.org/resource/President_of_the_United_States
p4161
sVfreebase
p4162
Vhttp://rdf.freebase.com/ns/m.060d2
p4163
sVrelevance
p4164
V0.62455
p4165
sa(dp4166
Vyago
p4167
Vhttp://yago-knowledge.org/resource/Nancy_Reagan
p4168
sVtext
p4169
VNancy Reagan
p4170
sVopencyc
p4171
Vhttp://sw.opencyc.org/concept/Mx4rwPSJc5wpEbGdrcN5Y29ycA
p4172
sVdbpedia
p4173
Vhttp://dbpedia.org/resource/Nancy_Reagan
p4174
sVfreebase
p4175
Vhttp://rdf.freebase.com/ns/m.059rv
p4176
sVrelevance
p4177
V0.567447
p4178
sa(dp4179
Vwebsite
p4180
Vhttp://www.clintonlibrary.gov/
p4181
sVyago
p4182
Vhttp://yago-knowledge.org/resource/Bill_Clinton
p4183
sVtext
p4184
VBill Clinton
p4185
sVopencyc
p4186
Vhttp://sw.opencyc.org/concept/Mx4rwQBp5JwpEbGdrcN5Y29ycA
p4187
sVmusicBrainz
p4188
Vhttp://zitgist.com/music/artist/a11bd200-7f0b-43a6-b7fe-4ea04929a42b
p4189
sVdbpedia
p4190
Vhttp://dbpedia.org/resource/Bill_Clinton
p4191
sVfreebase
p4192
Vhttp://rdf.freebase.com/ns/m.0157m
p4193
sVrelevance
p4194
V0.549247
p4195
sa(dp4196
Vwebsite
p4197
Vhttp://www.whitehouse.gov/
p4198
sVyago
p4199
Vhttp://yago-knowledge.org/resource/Barack_Obama
p4200
sVtext
p4201
VBarack Obama
p4202
sVdbpedia
p4203
Vhttp://dbpedia.org/resource/Barack_Obama
p4204
sVfreebase
p4205
Vhttp://rdf.freebase.com/ns/m.02mjmr
p4206
sVrelevance
p4207
V0.53312
p4208
sasg629
(lp4209
(dp4210
Vrelevance
p4211
V0.991631
p4212
sVtext
p4213
VReagan
p4214
sa(dp4215
Vrelevance
p4216
V0.956373
p4217
sVtext
p4218
VMrs Reagan
p4219
sa(dp4220
Vrelevance
p4221
V0.956256
p4222
sVtext
p4223
VRonald Reagan
p4224
sa(dp4225
Vrelevance
p4226
V0.900398
p4227
sVtext
p4228
Vlady Nancy Reagan
p4229
sa(dp4230
Vrelevance
p4231
V0.867568
p4232
sVtext
p4233
Vparticular Mrs Reagan
p4234
sa(dp4235
Vrelevance
p4236
V0.788767
p4237
sVtext
p4238
VReagan administration
p4239
sa(dp4240
Vrelevance
p4241
V0.787861
p4242
sVtext
p4243
Vnational conversation
p4244
sa(dp4245
Vrelevance
p4246
V0.7776
p4247
sVtext
p4248
VReagan Aids record
p4249
sa(dp4250
Vrelevance
p4251
V0.743819
p4252
sVtext
p4253
VWhite House
p4254
sa(dp4255
Vrelevance
p4256
V0.72708
p4257
sVtext
p4258
Vhopeful Hillary Clinton
p4259
sa(dp4260
Vrelevance
p4261
V0.717619
p4262
sVtext
p4263
VMrs Clinton
p4264
sa(dp4265
Vrelevance
p4266
V0.612783
p4267
sVtext
p4268
VAids treatment facility
p4269
sa(dp4270
Vrelevance
p4271
V0.594812
p4272
sVtext
p4273
Vlow key advocacy
p4274
sa(dp4275
Vrelevance
p4276
V0.581189
p4277
sVtext
p4278
Vspokesman Larry Speakes
p4279
sa(dp4280
Vrelevance
p4281
V0.574356
p4282
sVtext
p4283
Vwriter Steve Silberman
p4284
sa(dp4285
Vrelevance
p4286
V0.554124
p4287
sVtext
p4288
Vstem cell research
p4289
sa(dp4290
Vrelevance
p4291
V0.551703
p4292
sVtext
p4293
VNew York Magazine
p4294
sa(dp4295
Vrelevance
p4296
V0.518468
p4297
sVtext
p4298
Vpain Clinton
p4299
sa(dp4300
Vrelevance
p4301
V0.505095
p4302
sVtext
p4303
VAids activists
p4304
sa(dp4305
Vrelevance
p4306
V0.492365
p4307
sVtext
p4308
VAids crisis
p4309
sa(dp4310
Vrelevance
p4311
V0.477968
p4312
sVtext
p4313
VAids activist
p4314
sa(dp4315
Vrelevance
p4316
V0.466063
p4317
sVtext
p4318
Vugly legacy
p4319
sa(dp4320
Vrelevance
p4321
V0.46226
p4322
sVtext
p4323
VChris Geidner
p4324
sa(dp4325
Vrelevance
p4326
V0.459085
p4327
sVtext
p4328
VDan Savage
p4329
sa(dp4330
Vrelevance
p4331
V0.45536
p4332
sVtext
p4333
Vblog post
p4334
sa(dp4335
Vrelevance
p4336
V0.452048
p4337
sVtext
p4338
Vpersonal plea
p4339
sa(dp4340
Vrelevance
p4341
V0.449624
p4342
sVtext
p4343
Vdead friends
p4344
sa(dp4345
Vrelevance
p4346
V0.448562
p4347
sVtext
p4348
Vqueer Americans
p4349
sa(dp4350
Vrelevance
p4351
V0.448341
p4352
sVtext
p4353
VPeter Staley
p4354
sa(dp4355
Vrelevance
p4356
V0.448175
p4357
sVtext
p4358
Vlong article
p4359
sassg781
(lp4360
(dp4361
VfaceRectangle
p4362
(dp4363
Vwidth
p4364
I52
sVtop
p4365
I129
sVleft
p4366
I101
sVheight
p4367
I52
ssVscores
p4368
(dp4369
Vsadness
p4370
F6.4527669999999999e-15
sVneutral
p4371
F5.5929973499999998e-07
sVcontempt
p4372
F2.83143869e-10
sVdisgust
p4373
F1.70707022e-14
sVanger
p4374
F7.1600750000000003e-15
sVsurprise
p4375
F7.3796510000000003e-13
sVfear
p4376
F1.7203389999999999e-16
sVhappiness
p4377
F0.99999946399999995
ssa(dp4378
VfaceRectangle
p4379
(dp4380
Vwidth
p4381
I48
sVtop
p4382
I80
sVleft
p4383
I268
sVheight
p4384
I48
ssVscores
p4385
(dp4386
Vsadness
p4387
F8.80274965e-13
sVneutral
p4388
F9.2830550000000001e-07
sVcontempt
p4389
F8.9054450000000006e-09
sVdisgust
p4390
F4.9020743000000003e-10
sVanger
p4391
F8.460421e-13
sVsurprise
p4392
F2.28531846e-10
sVfear
p4393
F5.1286420000000001e-15
sVhappiness
p4394
F0.999999046
ssa(dp4395
VfaceRectangle
p4396
(dp4397
Vwidth
p4398
I41
sVtop
p4399
I193
sVleft
p4400
I372
sVheight
p4401
I41
ssVscores
p4402
(dp4403
Vsadness
p4404
F0.0132612567
sVneutral
p4405
F0.95369166100000002
sVcontempt
p4406
F0.0097932910000000008
sVdisgust
p4407
F0.0019435269099999999
sVanger
p4408
F0.0032427336600000002
sVsurprise
p4409
F0.002413484
sVfear
p4410
F0.00068796289999999995
sVhappiness
p4411
F0.0149661042
ssasg817
(dp4412
g819
I4
sg820
I41
sg821
I19
sg822
I2
sg823
I1477
sg824
I4
ssa(dp4413
g5
Vhttp://www.bbc.co.uk/news/business-35788379?ocid=socialflow_facebook&ns_mchannel=social&ns_campaign=bbcnews&ns_source=facebook
p4414
sg7
VGeorge Osborne 'planning' rise in insurance tax
p4415
sg9
VMillions of households could face an increase in insurance costs, following a warning that the chancellor may target premiums in next week's Budget.\u000aThe insurance industry has claimed that George Osborne is planning another increase in Insurance Premium Tax (IPT).\u000aThe tax was raised from 6% to 9.5% in November 2015.\u000aThe Treasury said it would not comment on speculation about the Budget, which takes place on Wednesday.\u000aThe AA said that a further increase, to 12.5%, would mean that the tax could be doubled in less than six months. \u000aSuch a rise would add 37 a year to the average car insurance premium, it said.\u000aIPT is charged on motor, home, pet and medical insurance, as well as car breakdown cover.\u000aTravel insurance, and insurance on some electrical products, attracts the higher rate of 20%. \u000aEdmund King, the president of the AA, said it was ridiculous that the insurance industry might be singled out.\u000a"Treasury minister Harriett Baldwin MP told us in a letter, 'IPT is not a tax on consumers but on insurance companies,' which is like saying fuel duty is not a tax on drivers but on petrol stations," he said.\u000aThe British Insurance Brokers' Association (Biba) said a rise in IPT would discourage customers from taking out policies.\u000aThe cost of motor policies rose more than 20% last year, according to the AA - partly as a result of November's rise in IPT.\u000aHowever, many premiums have fallen over the longer term, making the tax a relatively easy target for the chancellor.\u000aAn increase in IPT could raise as much as 1.3bn for the Treasury in the first year.\u000aGeorge Osborne has already rejected plans to scale back tax relief on pension contributions - a change that could have netted the government up to 7bn a year.\u000aAnother alternative - raising fuel duty - has proved unpopular with some Tory MPs.\u000a
p4416
sg11
Vhttps://s3.amazonaws.com/prod-cust-photo-posts-jfaikqealaka/3065-cb8a1f66221c4f95df75dcb0f9f97881.jpg
p4417
sg13
(dp4418
g15
(dp4419
Vmixed
p4420
V1
sVscore
p4421
V-0.144297
p4422
sVtype
p4423
Vnegative
p4424
ssg22
(lp4425
(dp4426
Vscore
p4427
V0.618191
p4428
sVlabel
p4429
V/finance/personal finance/insurance
p4430
sa(dp4431
Vconfident
p4432
Vno
p4433
sVscore
p4434
V0.300242
p4435
sVlabel
p4436
V/business and industrial/energy/oil/oil and gas prices
p4437
sa(dp4438
Vconfident
p4439
Vno
p4440
sVscore
p4441
V0.225991
p4442
sVlabel
p4443
V/finance/personal finance/financial planning/retirement and pension
p4444
sasg43
(lp4445
(dp4446
Vrelevance
p4447
V0.93017
p4448
sVcount
p4449
V4
sVtype
p4450
VCompany
p4451
sVtext
p4452
VIPT
p4453
sa(dp4454
Vrelevance
p4455
V0.750155
p4456
sVcount
p4457
V2
sVtype
p4458
VFieldTerminology
p4459
sVtext
p4460
Vinsurance premium
p4461
sa(dp4462
Vrelevance
p4463
V0.685308
p4464
sVcount
p4465
V2
sVtype
p4466
VFieldTerminology
p4467
sVtext
p4468
Vinsurance industry
p4469
sa(dp4470
Vrelevance
p4471
V0.624985
p4472
sVcount
p4473
V1
sVtype
p4474
VOrganization
p4475
sVtext
p4476
VIPT
p4477
sa(dp4478
Vrelevance
p4479
V0.592208
p4480
sVcount
p4481
V1
sVtype
p4482
VFieldTerminology
p4483
sVtext
p4484
Vinsurance costs
p4485
sa(dp4486
Vrelevance
p4487
V0.572256
p4488
sVcount
p4489
V3
sVtype
p4490
VOrganization
p4491
sVdisambiguated
p4492
(dp4493
VsubType
p4494
(lp4495
VFieldOfStudy
p4496
aVAwardDiscipline
p4497
aVProfession
p4498
asVdbpedia
p4499
Vhttp://dbpedia.org/resource/Art
p4500
sVname
p4501
VArt
p4502
sVfreebase
p4503
Vhttp://rdf.freebase.com/ns/m.0jjw
p4504
ssVtext
p4505
VAA
p4506
sa(dp4507
Vrelevance
p4508
V0.54939
p4509
sVcount
p4510
V3
sVtype
p4511
VOrganization
p4512
sVdisambiguated
p4513
(dp4514
Vwebsite
p4515
Vhttp://www.treasury.govt.nz/
p4516
sVyago
p4517
Vhttp://yago-knowledge.org/resource/New_Zealand_Treasury
p4518
sVname
p4519
VNew Zealand Treasury
p4520
sVfreebase
p4521
Vhttp://rdf.freebase.com/ns/m.0cz6p1
p4522
sVdbpedia
p4523
Vhttp://dbpedia.org/resource/New_Zealand_Treasury
p4524
sVgeo
p4525
V-41.27909 174.775684
p4526
ssVtext
p4527
VTreasury
p4528
sa(dp4529
Vrelevance
p4530
V0.507494
p4531
sVcount
p4532
V1
sVtype
p4533
VOrganization
p4534
sVtext
p4535
VBritish Insurance Brokers' Association
p4536
sa(dp4537
Vrelevance
p4538
V0.505896
p4539
sVcount
p4540
V2
sVtype
p4541
VPerson
p4542
sVtext
p4543
VGeorge Osborne
p4544
sa(dp4545
Vrelevance
p4546
V0.45492
p4547
sVcount
p4548
V1
sVtype
p4549
VFieldTerminology
p4550
sVtext
p4551
Vinsurance companies
p4552
sa(dp4553
Vrelevance
p4554
V0.440944
p4555
sVcount
p4556
V2
sVtype
p4557
VJobTitle
p4558
sVtext
p4559
Vchancellor
p4560
sa(dp4561
Vrelevance
p4562
V0.439719
p4563
sVcount
p4564
V1
sVtype
p4565
VFieldTerminology
p4566
sVtext
p4567
Vtax relief
p4568
sa(dp4569
Vrelevance
p4570
V0.387065
p4571
sVcount
p4572
V2
sVtype
p4573
VPerson
p4574
sVtext
p4575
VHarriett Baldwin MP
p4576
sa(dp4577
Vrelevance
p4578
V0.280913
p4579
sVcount
p4580
V1
sVtype
p4581
VPerson
p4582
sVtext
p4583
VEdmund King
p4584
sa(dp4585
Vrelevance
p4586
V0.275509
p4587
sVcount
p4588
V1
sVtype
p4589
VCompany
p4590
sVtext
p4591
VBiba
p4592
sa(dp4593
Vrelevance
p4594
V0.247058
p4595
sVcount
p4596
V1
sVtype
p4597
VJobTitle
p4598
sVtext
p4599
Vpresident
p4600
sa(dp4601
Vrelevance
p4602
V0.247058
p4603
sVcount
p4604
V2
sVtype
p4605
VQuantity
p4606
sVtext
p4607
V20%
p4608
sa(dp4609
Vrelevance
p4610
V0.247058
p4611
sVcount
p4612
V1
sVtype
p4613
VQuantity
p4614
sVtext
p4615
Vsix months
p4616
sa(dp4617
Vrelevance
p4618
V0.247058
p4619
sVcount
p4620
V1
sVtype
p4621
VQuantity
p4622
sVtext
p4623
V12.5%
p4624
sa(dp4625
Vrelevance
p4626
V0.247058
p4627
sVcount
p4628
V1
sVtype
p4629
VQuantity
p4630
sVtext
p4631
V9.5%
p4632
sa(dp4633
Vrelevance
p4634
V0.247058
p4635
sVcount
p4636
V1
sVtype
p4637
VQuantity
p4638
sVtext
p4639
V6%
p4640
sasg525
(dp4641
Vanger
p4642
V0.208757
p4643
sVjoy
p4644
V0.00151
p4645
sVfear
p4646
V0.041855
p4647
sVsadness
p4648
V0.021857
p4649
sVdisgust
p4650
V0.576672
p4651
ssg537
(lp4652
(dp4653
Vrelevance
p4654
V0.971618
p4655
sVtext
p4656
VInsurance
p4657
sVopencyc
p4658
Vhttp://sw.opencyc.org/concept/Mx4rvWNwLZwpEbGdrcN5Y29ycA
p4659
sVdbpedia
p4660
Vhttp://dbpedia.org/resource/Insurance
p4661
sVfreebase
p4662
Vhttp://rdf.freebase.com/ns/m.03xks
p4663
sa(dp4664
Vrelevance
p4665
V0.741891
p4666
sVtext
p4667
VPension
p4668
sVopencyc
p4669
Vhttp://sw.opencyc.org/concept/Mx4rmzbZnk1vQdmT35fI9sGz7A
p4670
sVdbpedia
p4671
Vhttp://dbpedia.org/resource/Pension
p4672
sVfreebase
p4673
Vhttp://rdf.freebase.com/ns/m.0by51
p4674
sa(dp4675
Vrelevance
p4676
V0.515006
p4677
sVtext
p4678
VBoiler insurance
p4679
sVyago
p4680
Vhttp://yago-knowledge.org/resource/Boiler_insurance
p4681
sVdbpedia
p4682
Vhttp://dbpedia.org/resource/Boiler_insurance
p4683
sVfreebase
p4684
Vhttp://rdf.freebase.com/ns/m.017st8
p4685
sa(dp4686
Vyago
p4687
Vhttp://yago-knowledge.org/resource/Travel_insurance
p4688
sVtext
p4689
VTravel insurance
p4690
sVopencyc
p4691
Vhttp://sw.opencyc.org/concept/Mx4rlkf8lEPqQdmczfoWyncotg
p4692
sVdbpedia
p4693
Vhttp://dbpedia.org/resource/Travel_insurance
p4694
sVfreebase
p4695
Vhttp://rdf.freebase.com/ns/m.08jvtd
p4696
sVrelevance
p4697
V0.510211
p4698
sasg629
(lp4699
(dp4700
Vrelevance
p4701
V0.725126
p4702
sVtext
p4703
VGeorge Osborne
p4704
sa(dp4705
Vrelevance
p4706
V0.706858
p4707
sVtext
p4708
VTreasury minister Harriett
p4709
sa(dp4710
Vrelevance
p4711
V0.690795
p4712
sVtext
p4713
Vinsurance premium
p4714
sa(dp4715
Vrelevance
p4716
V0.68722
p4717
sVtext
p4718
Vcar insurance premium
p4719
sa(dp4720
Vrelevance
p4721
V0.669247
p4722
sVtext
p4723
Vinsurance industry
p4724
sa(dp4725
Vrelevance
p4726
V0.648701
p4727
sVtext
p4728
VBritish Insurance Brokers
p4729
sa(dp4730
Vrelevance
p4731
V0.644891
p4732
sVtext
p4733
Vcar breakdown cover
p4734
sa(dp4735
Vrelevance
p4736
V0.625886
p4737
sVtext
p4738
Vrelatively easy target
p4739
sa(dp4740
Vrelevance
p4741
V0.606621
p4742
sVtext
p4743
Vfuel duty
p4744
sa(dp4745
Vrelevance
p4746
V0.506232
p4747
sVtext
p4748
Vinsurance costs
p4749
sa(dp4750
Vrelevance
p4751
V0.474828
p4752
sVtext
p4753
Vmedical insurance
p4754
sa(dp4755
Vrelevance
p4756
V0.472192
p4757
sVtext
p4758
VTravel insurance
p4759
sa(dp4760
Vrelevance
p4761
V0.463508
p4762
sVtext
p4763
Vinsurance companies
p4764
sa(dp4765
Vrelevance
p4766
V0.457698
p4767
sVtext
p4768
VTory MPs
p4769
sa(dp4770
Vrelevance
p4771
V0.452865
p4772
sVtext
p4773
Vincrease
p4774
sa(dp4775
Vrelevance
p4776
V0.45196
p4777
sVtext
p4778
VBaldwin MP
p4779
sa(dp4780
Vrelevance
p4781
V0.449001
p4782
sVtext
p4783
Vpetrol stations
p4784
sa(dp4785
Vrelevance
p4786
V0.44293
p4787
sVtext
p4788
Velectrical products
p4789
sa(dp4790
Vrelevance
p4791
V0.442874
p4792
sVtext
p4793
VEdmund King
p4794
sa(dp4795
Vrelevance
p4796
V0.440367
p4797
sVtext
p4798
Vtax relief
p4799
sa(dp4800
Vrelevance
p4801
V0.434252
p4802
sVtext
p4803
Vhigher rate
p4804
sa(dp4805
Vrelevance
p4806
V0.428686
p4807
sVtext
p4808
Vpension contributions
p4809
sa(dp4810
Vrelevance
p4811
V0.424041
p4812
sVtext
p4813
Vlonger term
p4814
sa(dp4815
Vrelevance
p4816
V0.419465
p4817
sVtext
p4818
Vmotor policies
p4819
sa(dp4820
Vrelevance
p4821
V0.363165
p4822
sVtext
p4823
VAA
p4824
sa(dp4825
Vrelevance
p4826
V0.350392
p4827
sVtext
p4828
Vrise
p4829
sa(dp4830
Vrelevance
p4831
V0.330019
p4832
sVtext
p4833
Vpremiums
p4834
sa(dp4835
Vrelevance
p4836
V0.328241
p4837
sVtext
p4838
Vchancellor
p4839
sassg781
(lp4840
sg817
(dp4841
g819
I1
sg820
I70
sg821
I0
sg822
I6
sg823
I806
sg824
I1
ssa(dp4842
g5
Vhttp://www.bbc.co.uk/newsround/35793463?ocid=socialflow_facebook&ns_mchannel=social&ns_campaign=bbcnews&ns_source=facebook
p4843
sg7
VHarry Styles lands role in new war film Dunkirk
p4844
sg9
VHarry Styles has reportedly landed his first film role in Christopher Nolan's war drama 'Dunkirk'.\u000aThe 22-year-old singer will star in the film, according to US magazine Variety, but it's thought to be a small part.\u000aThe drama, which is due for release in 2017, will recreate the events of the World War II evacuation of the French city Dunkirk in 1940. \u000aStyles will appear alongside British actors Tom Hardy, Oscar-winner Mark Rylance and Sir Kenneth Branagh in the film.\u000aWarner Bros, who are making the movie, are yet to comment on Harry's role. Newsround has contacted a representative for Styles for comment.\u000aHarry shot to fame in 2010 when he became a member of the pop group One Direction on the British talent show, The X Factor.\u000aThe four members are currently on a year-long break from the band, which began after they released their fifth album in March 2016.\u000a Copyright  2016 BBC. The BBC is not responsible for the content of external sites. Read about our approach to external linking.  \u000a
p4845
sg11
Vhttps://s3.amazonaws.com/prod-cust-photo-posts-jfaikqealaka/3065-fd2d4fba53f33d79d120b4b9aacaa11a.JPG
p4846
sg13
(dp4847
g15
(dp4848
Vmixed
p4849
V1
sVscore
p4850
V0.108498
p4851
sVtype
p4852
Vpositive
p4853
ssg22
(lp4854
(dp4855
Vscore
p4856
V0.502304
p4857
sVlabel
p4858
V/art and entertainment/movies and tv/movies
p4859
sa(dp4860
Vscore
p4861
V0.426336
p4862
sVlabel
p4863
V/business and industrial/advertising and marketing/advertising
p4864
sa(dp4865
Vscore
p4866
V0.404589
p4867
sVlabel
p4868
V/society/unrest and war
p4869
sasg43
(lp4870
(dp4871
Vrelevance
p4872
V0.801361
p4873
sVcount
p4874
V6
sVtype
p4875
VPerson
p4876
sVtext
p4877
VHarry Styles
p4878
sa(dp4879
Vrelevance
p4880
V0.303485
p4881
sVcount
p4882
V2
sVtype
p4883
VCompany
p4884
sVdisambiguated
p4885
(dp4886
Vwebsite
p4887
Vhttp://www.bbc.co.uk
p4888
sVyago
p4889
Vhttp://yago-knowledge.org/resource/BBC
p4890
sVname
p4891
VBBC
p4892
sVfreebase
p4893
Vhttp://rdf.freebase.com/ns/m.0g5lhl7
p4894
sVopencyc
p4895
Vhttp://sw.opencyc.org/concept/Mx4rwMl8FpwpEbGdrcN5Y29ycA
p4896
sVsubType
p4897
(lp4898
VMusicalAlbum
p4899
aVBroadcast
p4900
aVPeriodicalPublisher
p4901
aVProductionCompany
p4902
aVTVNetwork
p4903
aVAwardNominee
p4904
aVAwardWinner
p4905
aVFilmDirector
p4906
aVFilmProducer
p4907
aVMusicalArtist
p4908
aVTVProducer
p4909
asVcrunchbase
p4910
Vhttp://www.crunchbase.com/company/bbc
p4911
sVdbpedia
p4912
Vhttp://dbpedia.org/resource/BBC
p4913
ssVtext
p4914
VBBC
p4915
sa(dp4916
Vrelevance
p4917
V0.278769
p4918
sVcount
p4919
V1
sVtype
p4920
VFieldTerminology
p4921
sVtext
p4922
VWorld War II
p4923
sa(dp4924
Vrelevance
p4925
V0.268849
p4926
sVcount
p4927
V1
sVtype
p4928
VPrintMedia
p4929
sVtext
p4930
VUS magazine Variety
p4931
sa(dp4932
Vrelevance
p4933
V0.265879
p4934
sVcount
p4935
V1
sVtype
p4936
VPerson
p4937
sVdisambiguated
p4938
(dp4939
Vyago
p4940
Vhttp://yago-knowledge.org/resource/Kenneth_Branagh
p4941
sVname
p4942
VKenneth Branagh
p4943
sVfreebase
p4944
Vhttp://rdf.freebase.com/ns/m.0prjs
p4945
sVopencyc
p4946
Vhttp://sw.opencyc.org/concept/Mx4rvX1FM5wpEbGdrcN5Y29ycA
p4947
sVsubType
p4948
(lp4949
VActor
p4950
aVAwardNominee
p4951
aVAwardWinner
p4952
aVCelebrity
p4953
aVFilmActor
p4954
aVFilmDirector
p4955
aVFilmProducer
p4956
aVTheaterActor
p4957
aVTVActor
p4958
aVTVProducer
p4959
aVFilmWriter
p4960
asVdbpedia
p4961
Vhttp://dbpedia.org/resource/Kenneth_Branagh
p4962
ssVtext
p4963
VSir Kenneth Branagh
p4964
sa(dp4965
Vrelevance
p4966
V0.261416
p4967
sVcount
p4968
V1
sVtype
p4969
VPerson
p4970
sVtext
p4971
VChristopher Nolan
p4972
sa(dp4973
Vrelevance
p4974
V0.259542
p4975
sVcount
p4976
V2
sVtype
p4977
VPerson
p4978
sVtext
p4979
VHarry
p4980
sa(dp4981
Vrelevance
p4982
V0.25666
p4983
sVcount
p4984
V1
sVtype
p4985
VCompany
p4986
sVdisambiguated
p4987
(dp4988
Vwebsite
p4989
Vhttp://www.warnerbros.com
p4990
sVyago
p4991
Vhttp://yago-knowledge.org/resource/Warner_Bros.
p4992
sVname
p4993
VWarner Bros.
p4994
sVfreebase
p4995
Vhttp://rdf.freebase.com/ns/m.086k8
p4996
sVopencyc
p4997
Vhttp://sw.opencyc.org/concept/Mx4r0OHD2C9NQdiZa91EcGtGBA
p4998
sVsubType
p4999
(lp5000
VPerson
p5001
aVLocation
p5002
aVBrand
p5003
aVAwardNominee
p5004
aVAwardWinner
p5005
aVFilmCinematographer
p5006
aVFilmProducer
p5007
aVTVProducer
p5008
aVFilmCompany
p5009
aVFilmDistributor
p5010
aVProductionCompany
p5011
aVRecordLabel
p5012
aVTVNetwork
p5013
aVVideoGameDeveloper
p5014
aVVideoGamePublisher
p5015
asVcrunchbase
p5016
Vhttp://www.crunchbase.com/company/warner-bros
p5017
sVdbpedia
p5018
Vhttp://dbpedia.org/resource/Warner_Bros.
p5019
ssVtext
p5020
VWarner Bros
p5021
sa(dp5022
Vrelevance
p5023
V0.221466
p5024
sVcount
p5025
V1
sVtype
p5026
VPerson
p5027
sVtext
p5028
VNewsround
p5029
sa(dp5030
Vrelevance
p5031
V0.205125
p5032
sVcount
p5033
V1
sVtype
p5034
VPerson
p5035
sVtext
p5036
VTom Hardy
p5037
sa(dp5038
Vrelevance
p5039
V0.191471
p5040
sVcount
p5041
V1
sVtype
p5042
VJobTitle
p5043
sVtext
p5044
Vrepresentative
p5045
sa(dp5046
Vrelevance
p5047
V0.190714
p5048
sVcount
p5049
V1
sVtype
p5050
VPerson
p5051
sVdisambiguated
p5052
(dp5053
Vwebsite
p5054
Vhttp://www.MarkRylance.wordpress.com
p5055
sVyago
p5056
Vhttp://yago-knowledge.org/resource/Mark_Rylance
p5057
sVname
p5058
VMark Rylance
p5059
sVfreebase
p5060
Vhttp://rdf.freebase.com/ns/m.06xh_m
p5061
sVsubType
p5062
(lp5063
VActor
p5064
aVFilmActor
p5065
aVTheaterActor
p5066
aVTVActor
p5067
asVdbpedia
p5068
Vhttp://dbpedia.org/resource/Mark_Rylance
p5069
ssVtext
p5070
VMark Rylance
p5071
sa(dp5072
Vrelevance
p5073
V0.190714
p5074
sVcount
p5075
V1
sVtype
p5076
VQuantity
p5077
sVtext
p5078
V22-year
p5079
sasg525
(dp5080
Vanger
p5081
V0.053516
p5082
sVjoy
p5083
V0.001342
p5084
sVfear
p5085
V0.121986
p5086
sVsadness
p5087
V0.108506
p5088
sVdisgust
p5089
V0.269997
p5090
ssg537
(lp5091
(dp5092
Vrelevance
p5093
V0.965358
p5094
sVtext
p5095
VWorld War II
p5096
sVyago
p5097
Vhttp://yago-knowledge.org/resource/World_War_II
p5098
sVdbpedia
p5099
Vhttp://dbpedia.org/resource/World_War_II
p5100
sVfreebase
p5101
Vhttp://rdf.freebase.com/ns/m.081pw
p5102
sa(dp5103
Vrelevance
p5104
V0.81596
p5105
sVtext
p5106
VActor
p5107
sVopencyc
p5108
Vhttp://sw.opencyc.org/concept/Mx4rvVjaHZwpEbGdrcN5Y29ycA
p5109
sVdbpedia
p5110
Vhttp://dbpedia.org/resource/Actor
p5111
sVfreebase
p5112
Vhttp://rdf.freebase.com/ns/m.02hrh1q
p5113
sa(dp5114
Vrelevance
p5115
V0.7457
p5116
sVtext
p5117
VFilm director
p5118
sVdbpedia
p5119
Vhttp://dbpedia.org/resource/Film_director
p5120
sVfreebase
p5121
Vhttp://rdf.freebase.com/ns/m.02jknp
p5122
sa(dp5123
Vrelevance
p5124
V0.686986
p5125
sVtext
p5126
VFilm
p5127
sVopencyc
p5128
Vhttp://sw.opencyc.org/concept/Mx4rwP19XJwpEbGdrcN5Y29ycA
p5129
sVdbpedia
p5130
Vhttp://dbpedia.org/resource/Film
p5131
sVfreebase
p5132
Vhttp://rdf.freebase.com/ns/m.02vxn
p5133
sa(dp5134
Vwebsite
p5135
Vhttp://www.warnerbros.com
p5136
sVyago
p5137
Vhttp://yago-knowledge.org/resource/Warner_Bros.
p5138
sVtext
p5139
VWarner Bros.
p5140
sVopencyc
p5141
Vhttp://sw.opencyc.org/concept/Mx4r0OHD2C9NQdiZa91EcGtGBA
p5142
sVcrunchbase
p5143
Vhttp://www.crunchbase.com/company/warner-bros
p5144
sVdbpedia
p5145
Vhttp://dbpedia.org/resource/Warner_Bros.
p5146
sVfreebase
p5147
Vhttp://rdf.freebase.com/ns/m.086k8
p5148
sVrelevance
p5149
V0.681121
p5150
sa(dp5151
Vrelevance
p5152
V0.65527
p5153
sVtext
p5154
V2016
p5155
sVyago
p5156
Vhttp://yago-knowledge.org/resource/2016
p5157
sVdbpedia
p5158
Vhttp://dbpedia.org/resource/2016
p5159
sa(dp5160
Vrelevance
p5161
V0.63503
p5162
sVtext
p5163
V2017
p5164
sVyago
p5165
Vhttp://yago-knowledge.org/resource/2017
p5166
sVdbpedia
p5167
Vhttp://dbpedia.org/resource/2017
p5168
sVfreebase
p5169
Vhttp://rdf.freebase.com/ns/m.0dkb4
p5170
sa(dp5171
Vwebsite
p5172
Vhttp://www.danniimusic.com/
p5173
sVyago
p5174
Vhttp://yago-knowledge.org/resource/Dannii_Minogue
p5175
sVtext
p5176
VDannii Minogue
p5177
sVopencyc
p5178
Vhttp://sw.opencyc.org/concept/Mx4rv2yFPJwpEbGdrcN5Y29ycA
p5179
sVmusicBrainz
p5180
Vhttp://zitgist.com/music/artist/4cab12f3-af12-4a55-ade2-606bd9524425
p5181
sVdbpedia
p5182
Vhttp://dbpedia.org/resource/Dannii_Minogue
p5183
sVfreebase
p5184
Vhttp://rdf.freebase.com/ns/m.0c7ct
p5185
sVrelevance
p5186
V0.634378
p5187
sasg629
(lp5188
(dp5189
Vrelevance
p5190
V0.873164
p5191
sVtext
p5192
VFrench city Dunkirk
p5193
sa(dp5194
Vrelevance
p5195
V0.806936
p5196
sVtext
p5197
VSir Kenneth Branagh
p5198
sa(dp5199
Vrelevance
p5200
V0.769082
p5201
sVtext
p5202
Vactors Tom Hardy
p5203
sa(dp5204
Vrelevance
p5205
V0.75245
p5206
sVtext
p5207
VOscar-winner Mark Rylance
p5208
sa(dp5209
Vrelevance
p5210
V0.612761
p5211
sVtext
p5212
VHarry Styles
p5213
sa(dp5214
Vrelevance
p5215
V0.604095
p5216
sVtext
p5217
V22-year-old singer
p5218
sa(dp5219
Vrelevance
p5220
V0.558618
p5221
sVtext
p5222
VChristopher Nolan
p5223
sa(dp5224
Vrelevance
p5225
V0.530961
p5226
sVtext
p5227
Vmagazine Variety
p5228
sa(dp5229
Vrelevance
p5230
V0.530095
p5231
sVtext
p5232
Vfilm role
p5233
sa(dp5234
Vrelevance
p5235
V0.528812
p5236
sVtext
p5237
VWar II evacuation
p5238
sa(dp5239
Vrelevance
p5240
V0.525333
p5241
sVtext
p5242
Vyear-long break
p5243
sa(dp5244
Vrelevance
p5245
V0.517975
p5246
sVtext
p5247
Vexternal linking
p5248
sa(dp5249
Vrelevance
p5250
V0.516436
p5251
sVtext
p5252
VWarner Bros
p5253
sa(dp5254
Vrelevance
p5255
V0.509545
p5256
sVtext
p5257
Vexternal sites
p5258
sa(dp5259
Vrelevance
p5260
V0.483694
p5261
sVtext
p5262
VBritish talent
p5263
sa(dp5264
Vrelevance
p5265
V0.483197
p5266
sVtext
p5267
Vpop group
p5268
sa(dp5269
Vrelevance
p5270
V0.305087
p5271
sVtext
p5272
VNewsround
p5273
sa(dp5274
Vrelevance
p5275
V0.28579
p5276
sVtext
p5277
VBBC
p5278
sa(dp5279
Vrelevance
p5280
V0.284434
p5281
sVtext
p5282
Vcomment
p5283
sa(dp5284
Vrelevance
p5285
V0.257698
p5286
sVtext
p5287
VFactor
p5288
sa(dp5289
Vrelevance
p5290
V0.251253
p5291
sVtext
p5292
Vrepresentative
p5293
sa(dp5294
Vrelevance
p5295
V0.25024
p5296
sVtext
p5297
VDirection
p5298
sa(dp5299
Vrelevance
p5300
V0.249638
p5301
sVtext
p5302
VCopyright
p5303
sa(dp5304
Vrelevance
p5305
V0.249008
p5306
sVtext
p5307
Vrelease
p5308
sa(dp5309
Vrelevance
p5310
V0.24882
p5311
sVtext
p5312
Vevents
p5313
sa(dp5314
Vrelevance
p5315
V0.248739
p5316
sVtext
p5317
VWorld
p5318
sa(dp5319
Vrelevance
p5320
V0.246805
p5321
sVtext
p5322
Vmovie
p5323
sa(dp5324
Vrelevance
p5325
V0.24569
p5326
sVtext
p5327
Vfame
p5328
sa(dp5329
Vrelevance
p5330
V0.24546
p5331
sVtext
p5332
Vapproach
p5333
sassg781
(lp5334
(dp5335
VfaceRectangle
p5336
(dp5337
Vwidth
p5338
I93
sVtop
p5339
I70
sVleft
p5340
I237
sVheight
p5341
I93
ssVscores
p5342
(dp5343
Vsadness
p5344
F0.03190598
sVneutral
p5345
F0.44764205800000001
sVcontempt
p5346
F0.047187693400000001
sVdisgust
p5347
F0.1149806
sVanger
p5348
F0.0499777421
sVsurprise
p5349
F0.034299999999999997
sVfear
p5350
F0.00450986437
sVhappiness
p5351
F0.269496083
ssasg817
(dp5352
g819
I31
sg820
I16
sg821
I11
sg822
I3
sg823
I2309
sg824
I23
ssa(dp5353
g5
Vhttp://www.bbc.co.uk/news/uk-politics-35793673?ocid=socialflow_facebook&ns_mchannel=social&ns_campaign=bbcnews&ns_source=facebook
p5354
sg7
VJohn McDonnell: 'Labour is mainstream'
p5355
sg9
VLabour is now "mainstream", shadow chancellor John McDonnell has told the Today programme, following his announcement yesterday that a future Labour government would control public spending through a "fiscal credibility" lock.\u000a Copyright  2016 BBC. The BBC is not responsible for the content of external sites. Read about our approach to external linking.  \u000a
p5356
sg11
Vhttp://ichef.bbci.co.uk/news/1024/cpsprodpb/6205/production/_88739052_p03mff5w.jpg
p5357
sg13
(dp5358
g15
(dp5359
Vmixed
p5360
V1
sVscore
p5361
V-0.356563
p5362
sVtype
p5363
Vnegative
p5364
ssg22
(lp5365
(dp5366
Vscore
p5367
V0.550822
p5368
sVlabel
p5369
V/business and industrial/advertising and marketing/advertising
p5370
sa(dp5371
Vscore
p5372
V0.472261
p5373
sVlabel
p5374
V/health and fitness/alternative medicine/holistic healing
p5375
sa(dp5376
Vscore
p5377
V0.404848
p5378
sVlabel
p5379
V/law, govt and politics/legal issues/civil law/copyright
p5380
sasg43
(lp5381
(dp5382
Vrelevance
p5383
V0.901869
p5384
sVcount
p5385
V1
sVtype
p5386
VOrganization
p5387
sVtext
p5388
VLabour government
p5389
sa(dp5390
Vrelevance
p5391
V0.819262
p5392
sVcount
p5393
V2
sVtype
p5394
VCompany
p5395
sVtext
p5396
VBBC
p5397
sa(dp5398
Vrelevance
p5399
V0.680988
p5400
sVcount
p5401
V1
sVtype
p5402
VPerson
p5403
sVtext
p5404
VJohn McDonnell
p5405
sa(dp5406
Vrelevance
p5407
V0.566518
p5408
sVcount
p5409
V1
sVtype
p5410
VJobTitle
p5411
sVtext
p5412
Vchancellor
p5413
sasg525
(dp5414
Vanger
p5415
V0.225808
p5416
sVjoy
p5417
V0.002233
p5418
sVfear
p5419
V0.115788
p5420
sVsadness
p5421
V0.256409
p5422
sVdisgust
p5423
V0.112573
p5424
ssg537
(lp5425
(dp5426
Vwebsite
p5427
Vhttp://www.conservatives.com/
p5428
sVyago
p5429
Vhttp://yago-knowledge.org/resource/Conservative_Party_(UK)
p5430
sVtext
p5431
VConservative Party
p5432
sVopencyc
p5433
Vhttp://sw.opencyc.org/concept/Mx4rPn-jPo2jQdid8_uJm5y7pw
p5434
sVdbpedia
p5435
Vhttp://dbpedia.org/resource/Conservative_Party_(UK)
p5436
sVfreebase
p5437
Vhttp://rdf.freebase.com/ns/m.07wpm
p5438
sVrelevance
p5439
V0.90798
p5440
sa(dp5441
Vwebsite
p5442
Vhttp://www.number10.gov.uk/
p5443
sVyago
p5444
Vhttp://yago-knowledge.org/resource/Gordon_Brown
p5445
sVtext
p5446
VGordon Brown
p5447
sVdbpedia
p5448
Vhttp://dbpedia.org/resource/Gordon_Brown
p5449
sVfreebase
p5450
Vhttp://rdf.freebase.com/ns/m.03f77
p5451
sVrelevance
p5452
V0.905082
p5453
sa(dp5454
Vrelevance
p5455
V0.630841
p5456
sVtext
p5457
VHarold Wilson
p5458
sVyago
p5459
Vhttp://yago-knowledge.org/resource/Harold_Wilson
p5460
sVdbpedia
p5461
Vhttp://dbpedia.org/resource/Harold_Wilson
p5462
sVfreebase
p5463
Vhttp://rdf.freebase.com/ns/m.0dr9m
p5464
sa(dp5465
Vwebsite
p5466
Vhttp://www.labour.org.uk/
p5467
sVyago
p5468
Vhttp://yago-knowledge.org/resource/Labour_Party_(UK)
p5469
sVtext
p5470
VLabour Party
p5471
sVopencyc
p5472
Vhttp://sw.opencyc.org/concept/Mx4rW6JwMAu0EdeB_gCw0Hwy_g
p5473
sVdbpedia
p5474
Vhttp://dbpedia.org/resource/Labour_Party_(UK)
p5475
sVfreebase
p5476
Vhttp://rdf.freebase.com/ns/m.01c9x
p5477
sVrelevance
p5478
V0.625558
p5479
sasg629
(lp5480
(dp5481
Vrelevance
p5482
V0.999851
p5483
sVtext
p5484
Vchancellor John McDonnell
p5485
sa(dp5486
Vrelevance
p5487
V0.953234
p5488
sVtext
p5489
Vfuture Labour government
p5490
sa(dp5491
Vrelevance
p5492
V0.835351
p5493
sVtext
p5494
Vfiscal credibility
p5495
sa(dp5496
Vrelevance
p5497
V0.773856
p5498
sVtext
p5499
Vexternal linking
p5500
sa(dp5501
Vrelevance
p5502
V0.754686
p5503
sVtext
p5504
Vpublic spending
p5505
sa(dp5506
Vrelevance
p5507
V0.726043
p5508
sVtext
p5509
Vexternal sites
p5510
sa(dp5511
Vrelevance
p5512
V0.496424
p5513
sVtext
p5514
Vmainstream
p5515
sa(dp5516
Vrelevance
p5517
V0.493719
p5518
sVtext
p5519
Vlock
p5520
sa(dp5521
Vrelevance
p5522
V0.492842
p5523
sVtext
p5524
Vannouncement
p5525
sa(dp5526
Vrelevance
p5527
V0.487735
p5528
sVtext
p5529
Vshadow
p5530
sa(dp5531
Vrelevance
p5532
V0.476863
p5533
sVtext
p5534
VCopyright
p5535
sa(dp5536
Vrelevance
p5537
V0.457731
p5538
sVtext
p5539
VBBC
p5540
sa(dp5541
Vrelevance
p5542
V0.442626
p5543
sVtext
p5544
Vprogramme
p5545
sa(dp5546
Vrelevance
p5547
V0.437547
p5548
sVtext
p5549
Vapproach
p5550
sassg781
(lp5551
(dp5552
VfaceRectangle
p5553
(dp5554
Vwidth
p5555
I210
sVtop
p5556
I92
sVleft
p5557
I502
sVheight
p5558
I210
ssVscores
p5559
(dp5560
Vsadness
p5561
F0.000166983387
sVneutral
p5562
F0.25264444899999999
sVcontempt
p5563
F0.0038013435000000002
sVdisgust
p5564
F0.00014408244199999999
sVanger
p5565
F4.5178374400000003e-05
sVsurprise
p5566
F3.4758990000000003e-05
sVfear
p5567
F1.2592491900000001e-06
sVhappiness
p5568
F0.74316199999999999
ssasg817
(dp5569
g819
I11
sg820
I1
sg821
I31
sg822
I0
sg823
I1067
sg824
I2
ssas.