(dp1
S'articles'
p2
(lp3
(dp4
S'real_url'
p5
Vhttp://www.bbc.co.uk/sport/rugby-union/35771472?ns_mchannel=social&ns_campaign=bbc_sport&ns_source=facebook&ns_linkname=sport
p6
sS'title'
p7
VEngland survive late Welsh onslaught
p8
sS'text'
p9
VEngland will go to Paris next weekend with a Grand Slam in their sights after hanging on against a resurgent Wales to secure the Triple Crown in an epic encounter.\u000aOnly a heavy defeat will deny them a first Six Nations title since 2011 despite a dramatic finale that so nearly cost them dear at Twickenham.\u000aA first-half try from Anthony Watson and three penalties from Owen Farrell established a 16-0 half-time lead as the hosts took control.\u000aA charge-down try from Dan Biggar gave Wales hope but, with Maro Itoje outstanding, Farrell's boot appeared to have calmed any nerves left from the infamous collapse from a similar position in the World Cup last autumn. \u000aTwo tries in four minutes from George North and Talupe Faletau changed all that, and in the final moments North almost powered free again.\u000aBut England escaped, and Eddie Jones' first season in charge may yet end in triumph.\u000aNot since 2003 have England won the Grand Slam, and while they have been hammered in their past two deciding matches, they will start as favourites against a struggling France.\u000aThey could even be crowned Six Nations champions on Sunday, with France needing to beat Scotland at Murrayfield (15:00 GMT) to take the title race to the final weekend.\u000aAnd France will need to beat Scotland and England with a cumulative 59-point swing in order to deny England the title - although a win of any margin in Paris would prevent England from claiming the Grand Slam.\u000aItoje leads the way\u000aEngland had begun at pace, the Welsh defensive line getting stretched and both Mike Brown and George Ford failing to make the most of scything breaks.\u000aFarrell slotted two quick penalties but with Dan Cole held up over the line they could and perhaps should have led by more.\u000aWales were being starved of the ball, Itoje disrupting their line-out and handling errors sucking away their momentum on the rare occasions they did have the ball.\u000aAnd it was Itoje's power with ball in hand that led to the game's first try, the young lock smashing through Biggar and Scott Baldwin before releasing Brown to send Watson in down the left for his 10th try in 19 Tests.\u000aHistory threatens to repeat\u000aWales had missed 19 tackles in the first half and shipped eight penalties, and after Brown and Jack Nowell cut further lines Farrell landed his fourth penalty to make it 19-0.\u000aAt last Warren Gatland's men won some territory, opting for a series of scrums from penalties in front of the posts, but each drive was absorbed by a white wall of defenders.\u000aIt took a pair of mistakes from England's half-backs to open the door - Youngs with a long inaccurate pass, Ford's clearing kick charged down by Biggar and the fly-half diving on the loose ball as it rolled under the posts.\u000aGatland threw on a replacement front row and then Justin Tipuric when his skipper Sam Warburton was carried off on a stretcher, and suddenly it was a different game.\u000aNorth went over in the left corner, only for referee Craig Joubert to rule it out for a questionable knock-on from Jonathan Davies, \u000aJones responded - Danny Care on for Youngs, Manu Tuilagi back in midfield, Farrell in to 10 in place of the struggling Ford.\u000aIt seemed to have worked, only for Wales to strike twice in the last seven minutes and cut the lead from 25-7 to within a single try.\u000aBut North was shoved into touch as he sprinted for the left-hand corner, and a comeback that would have outdone even the victories of last September and 2008 was just about denied.\u000aMan of the match\u000aMaro Itoje was compared to a Vauxhall Viva by his coach at the start of this tournament, and to an Astra after the win over Ireland, but this was a Rolls-Royce of a display from the the young Saracens second row.\u000aWhat the coaches thought\u000aEngland boss Eddie Jones: "We made a number of changes on purpose to test players and to test the strength of the team [later in the game] and maybe those changes didn't work. If you look at our first 60 minutes there was some fantastic rugby. The Grand Slam is a reality and we can't wait to get to Paris and to do the business."\u000aRead more: Grand Slam is on for England - Jones \u000aWales boss Warren Gatland: "I'm very disappointed with the first half. We looked tired and didn't look enthusiastic. I told the players they needed to come up with answers themselves. We wonder what could have been. We outscored them 3-1 in terms of tries but the best team won and I take my hat off to them."\u000aAnd what about the pundits?\u000aFormer England scrum-half Matt Dawson: "The two benches were going to be important and Wales had the better bench. Thankfully, the clock won for England."\u000aFormer Wales fly-half Jonathan Davies: "England choked a bit towards the end and it was a delight to see Wales play a different game and show what they're capable of. England deserved the win, they were the better side for 70 minutes."\u000aEngland: Brown; Watson, Joseph, Farrell, Nowell; Ford, Youngs; Marler, Hartley, Cole, Itoje, Kruis, Robshaw, Haskell, B Vunipola.\u000aReplacements: Tuilagi for Ford (64), Daly for Joseph (74), Care for Youngs (63), M Vunipola for Marler (56), Cowan-Dickie for Hartley (71), Launchbury for Kruis (78), Brookes for Robshaw (71), Clifford for Haskell (67).\u000aSin Bin: Cole (72).\u000aWales: Williams, Cuthbert, J. Davies, Roberts, North, Biggar, G. Davies, Evans, Baldwin, Lee, B. Davies, Jones, Lydiate, Warburton, Faletau.\u000aReplacements: Priestland for Biggar (74), Webb for G. Davies (63), James for Evans (53), Owens for Baldwin (53), Francis for Lee (53), Charteris for Jones (63), Tipuric for Warburton (56).\u000aNot Used: Anscombe.\u000aRef: Craig Joubert (South Africa).\u000a
p10
sS'image_link'
p11
Vhttps://s3.amazonaws.com/prod-cust-photo-posts-jfaikqealaka/3082-8a7796774f29463c53c24878512df526.jpg
p12
sS'alchemy'
p13
(dp14
S'docSentiment'
p15
(dp16
Vmixed
p17
V1
sVscore
p18
V-0.110668
p19
sVtype
p20
Vnegative
p21
ssS'taxonomy'
p22
(lp23
(dp24
Vscore
p25
V0.637226
p26
sVlabel
p27
V/sports/rugby
p28
sa(dp29
Vconfident
p30
Vno
p31
sVscore
p32
V0.308569
p33
sVlabel
p34
V/travel/tourist destinations/france
p35
sa(dp36
Vconfident
p37
Vno
p38
sVscore
p39
V0.26364
p40
sVlabel
p41
V/sports/football
p42
sasS'entities'
p43
(lp44
(dp45
Vrelevance
p46
V0.837255
p47
sVcount
p48
V15
p49
sVtype
p50
VCountry
p51
sVdisambiguated
p52
(dp53
Vwebsite
p54
Vhttp://www.direct.gov.uk/
p55
sVyago
p56
Vhttp://yago-knowledge.org/resource/England
p57
sVgeonames
p58
Vhttp://sws.geonames.org/3333218/
p59
sVfreebase
p60
Vhttp://rdf.freebase.com/ns/m.02jx1
p61
sVopencyc
p62
Vhttp://sw.opencyc.org/concept/Mx4rvViWaZwpEbGdrcN5Y29ycA
p63
sVsubType
p64
(lp65
VLocation
p66
aVPoliticalDistrict
p67
aVAdministrativeDivision
p68
aVGovernmentalJurisdiction
p69
asVdbpedia
p70
Vhttp://dbpedia.org/resource/England
p71
sVname
p72
VEngland
p73
ssVtext
p74
VEngland
p75
sa(dp76
Vrelevance
p77
V0.625039
p78
sVcount
p79
V10
p80
sVtype
p81
VCountry
p82
sVdisambiguated
p83
(dp84
Vwebsite
p85
Vhttp://www.visitwales.com
p86
sVyago
p87
Vhttp://yago-knowledge.org/resource/Wales
p88
sVgeonames
p89
Vhttp://sws.geonames.org/2636718/
p90
sVfreebase
p91
Vhttp://rdf.freebase.com/ns/m.0j5g9
p92
sVopencyc
p93
Vhttp://sw.opencyc.org/concept/Mx4rvVitvJwpEbGdrcN5Y29ycA
p94
sVsubType
p95
(lp96
VLocation
p97
aVAdministrativeDivision
p98
aVGovernmentalJurisdiction
p99
aVFilmScreeningVenue
p100
asVdbpedia
p101
Vhttp://dbpedia.org/resource/Wales
p102
sVname
p103
VWales
p104
ssVtext
p105
VWales
p106
sa(dp107
Vrelevance
p108
V0.546873
p109
sVcount
p110
V6
sVtype
p111
VPerson
p112
sVdisambiguated
p113
(dp114
Vwebsite
p115
Vhttp://www.saracens.com/players/view.php?Id=267
p116
sVsubType
p117
(lp118
sVdbpedia
p119
Vhttp://dbpedia.org/resource/Owen_Farrell
p120
sVname
p121
VOwen Farrell
p122
sVfreebase
p123
Vhttp://rdf.freebase.com/ns/m.03hjhbh
p124
ssVtext
p125
VOwen Farrell
p126
sa(dp127
Vrelevance
p128
V0.506578
p129
sVcount
p130
V6
sVtype
p131
VPerson
p132
sVtext
p133
VEddie Jones
p134
sa(dp135
Vrelevance
p136
V0.500057
p137
sVcount
p138
V5
sVtype
p139
VGeographicFeature
p140
sVtext
p141
VGrand Slam
p142
sa(dp143
Vrelevance
p144
V0.49102
p145
sVcount
p146
V4
sVtype
p147
VPerson
p148
sVdisambiguated
p149
(dp150
VsubType
p151
(lp152
sVdbpedia
p153
Vhttp://dbpedia.org/resource/Dan_Biggar
p154
sVname
p155
VDan Biggar
p156
sVfreebase
p157
Vhttp://rdf.freebase.com/ns/m.04q3qm4
p158
ssVtext
p159
VDan Biggar
p160
sa(dp161
Vrelevance
p162
V0.415642
p163
sVcount
p164
V4
sVtype
p165
VPerson
p166
sVtext
p167
VMaro Itoje
p168
sa(dp169
Vrelevance
p170
V0.365361
p171
sVcount
p172
V4
sVtype
p173
VPerson
p174
sVtext
p175
VYoungs
p176
sa(dp177
Vrelevance
p178
V0.365103
p179
sVcount
p180
V4
sVtype
p181
VCompany
p182
sVdisambiguated
p183
(dp184
Vwebsite
p185
Vhttp://www.ford.com
p186
sVyago
p187
Vhttp://yago-knowledge.org/resource/Ford_Motor_Company
p188
sVname
p189
VFord Motor Company
p190
sVfreebase
p191
Vhttp://rdf.freebase.com/ns/m.02zs4
p192
sVsubType
p193
(lp194
VAutomobileCompany
p195
aVAwardWinner
p196
aVInventor
p197
aVSchoolFounder
p198
asVcrunchbase
p199
Vhttp://www.crunchbase.com/company/ford-motor-company
p200
sVdbpedia
p201
Vhttp://dbpedia.org/resource/Ford_Motor_Company
p202
ssVtext
p203
VFord
p204
sa(dp205
Vrelevance
p206
V0.358405
p207
sVcount
p208
V6
sVtype
p209
VPerson
p210
sVtext
p211
VJonathan Davies
p212
sa(dp213
Vrelevance
p214
V0.347489
p215
sVcount
p216
V3
sVtype
p217
VCity
p218
sVtext
p219
VParis
p220
sa(dp221
Vrelevance
p222
V0.334595
p223
sVcount
p224
V3
sVtype
p225
VPerson
p226
sVtext
p227
VAnthony Watson
p228
sa(dp229
Vrelevance
p230
V0.334096
p231
sVcount
p232
V2
sVtype
p233
VPerson
p234
sVdisambiguated
p235
(dp236
VsubType
p237
(lp238
sVdbpedia
p239
Vhttp://dbpedia.org/resource/Craig_Joubert
p240
sVname
p241
VCraig Joubert
p242
sVfreebase
p243
Vhttp://rdf.freebase.com/ns/m.064ql_b
p244
ssVtext
p245
VCraig Joubert
p246
sa(dp247
Vrelevance
p248
V0.331766
p249
sVcount
p250
V4
sVtype
p251
VPerson
p252
sVtext
p253
VMike Brown
p254
sa(dp255
Vrelevance
p256
V0.329454
p257
sVcount
p258
V3
sVtype
p259
VPerson
p260
sVdisambiguated
p261
(dp262
Vyago
p263
Vhttp://yago-knowledge.org/resource/Warren_Gatland
p264
sVsubType
p265
(lp266
VAthlete
p267
aVRugbyPlayer
p268
asVdbpedia
p269
Vhttp://dbpedia.org/resource/Warren_Gatland
p270
sVname
p271
VWarren Gatland
p272
sVfreebase
p273
Vhttp://rdf.freebase.com/ns/m.06z1tn
p274
ssVtext
p275
VWarren Gatland
p276
sa(dp277
Vrelevance
p278
V0.316545
p279
sVcount
p280
V3
sVtype
p281
VCountry
p282
sVdisambiguated
p283
(dp284
Vwebsite
p285
Vhttp://www.service-public.fr/etranger/english.html
p286
sVyago
p287
Vhttp://yago-knowledge.org/resource/France
p288
sVname
p289
VFrance
p290
sVfreebase
p291
Vhttp://rdf.freebase.com/ns/m.0f8l9c
p292
sVopencyc
p293
Vhttp://sw.opencyc.org/concept/Mx4rvVj6EJwpEbGdrcN5Y29ycA
p294
sVsubType
p295
(lp296
VLocation
p297
aVRegion
p298
aVAdministrativeDivision
p299
aVGovernmentalJurisdiction
p300
aVFilmDirector
p301
asVdbpedia
p302
Vhttp://dbpedia.org/resource/France
p303
sVciaFactbook
p304
Vhttp://www4.wiwiss.fu-berlin.de/factbook/resource/France
p305
sVgeo
p306
V47.0 2.0
p307
ssVtext
p308
VFrance
p309
sa(dp310
Vrelevance
p311
V0.30963
p312
sVcount
p313
V3
sVtype
p314
VPerson
p315
sVdisambiguated
p316
(dp317
VsubType
p318
(lp319
sVdbpedia
p320
Vhttp://dbpedia.org/resource/Dan_Cole_(rugby_union)
p321
sVname
p322
VDan Cole (rugby union)
p323
sVfreebase
p324
Vhttp://rdf.freebase.com/ns/m.03yk8lp
p325
ssVtext
p326
VDan Cole
p327
sa(dp328
Vrelevance
p329
V0.301687
p330
sVcount
p331
V1
sVtype
p332
VPerson
p333
sVdisambiguated
p334
(dp335
Vfreebase
p336
Vhttp://rdf.freebase.com/ns/m.0dlmqtt
p337
sVdbpedia
p338
Vhttp://dbpedia.org/resource/George_North
p339
sVname
p340
VGeorge North
p341
ssVtext
p342
VGeorge North
p343
sa(dp344
Vrelevance
p345
V0.297249
p346
sVcount
p347
V3
sVtype
p348
VPerson
p349
sVdisambiguated
p350
(dp351
VsubType
p352
(lp353
sVdbpedia
p354
Vhttp://dbpedia.org/resource/Sam_Warburton
p355
sVname
p356
VSam Warburton
p357
sVfreebase
p358
Vhttp://rdf.freebase.com/ns/m.05zwvm5
p359
ssVtext
p360
VSam Warburton
p361
sa(dp362
Vrelevance
p363
V0.296628
p364
sVcount
p365
V1
sVtype
p366
VCompany
p367
sVtext
p368
VMaro Itoje
p369
sa(dp370
Vrelevance
p371
V0.282034
p372
sVcount
p373
V2
sVtype
p374
VPerson
p375
sVdisambiguated
p376
(dp377
VsubType
p378
(lp379
sVdbpedia
p380
Vhttp://dbpedia.org/resource/Manu_Tuilagi
p381
sVname
p382
VManu Tuilagi
p383
sVfreebase
p384
Vhttp://rdf.freebase.com/ns/m.04jjd74
p385
ssVtext
p386
VManu Tuilagi
p387
sa(dp388
Vrelevance
p389
V0.279375
p390
sVcount
p391
V2
sVtype
p392
VCountry
p393
sVdisambiguated
p394
(dp395
Vwebsite
p396
Vhttp://www.scotland.org/
p397
sVyago
p398
Vhttp://yago-knowledge.org/resource/Scotland
p399
sVgeonames
p400
Vhttp://sws.geonames.org/2643576/
p401
sVfreebase
p402
Vhttp://rdf.freebase.com/ns/m.01xk6b
p403
sVopencyc
p404
Vhttp://sw.opencyc.org/concept/Mx4rvViIm5wpEbGdrcN5Y29ycA
p405
sVsubType
p406
(lp407
VLocation
p408
aVAdministrativeDivision
p409
aVGovernmentalJurisdiction
p410
asVdbpedia
p411
Vhttp://dbpedia.org/resource/Scotland
p412
sVname
p413
VScotland
p414
ssVtext
p415
VScotland
p416
sa(dp417
Vrelevance
p418
V0.274608
p419
sVcount
p420
V2
sVtype
p421
VPerson
p422
sVdisambiguated
p423
(dp424
Vfreebase
p425
Vhttp://rdf.freebase.com/ns/m.0gvvxr8
p426
sVdbpedia
p427
Vhttp://dbpedia.org/resource/Justin_Tipuric
p428
sVname
p429
VJustin Tipuric
p430
ssVtext
p431
VJustin Tipuric
p432
sa(dp433
Vrelevance
p434
V0.266774
p435
sVcount
p436
V1
sVtype
p437
VGeographicFeature
p438
sVtext
p439
VTalupe Faletau
p440
sa(dp441
Vrelevance
p442
V0.263287
p443
sVcount
p444
V3
sVtype
p445
VPerson
p446
sVtext
p447
VScott Baldwin
p448
sa(dp449
Vrelevance
p450
V0.253988
p451
sVcount
p452
V1
sVtype
p453
VPerson
p454
sVdisambiguated
p455
(dp456
Vfreebase
p457
Vhttp://rdf.freebase.com/ns/m.0cn_kx8
p458
sVdbpedia
p459
Vhttp://dbpedia.org/resource/George_Ford_(rugby_union)
p460
sVname
p461
VGeorge Ford (rugby union)
p462
ssVtext
p463
VGeorge Ford
p464
sa(dp465
Vrelevance
p466
V0.249238
p467
sVcount
p468
V1
sVtype
p469
VSport
p470
sVdisambiguated
p471
(dp472
Vyago
p473
Vhttp://yago-knowledge.org/resource/Rugby_union
p474
sVsubType
p475
(lp476
sVdbpedia
p477
Vhttp://dbpedia.org/resource/Rugby_union
p478
sVname
p479
VRugby union
p480
sVfreebase
p481
Vhttp://rdf.freebase.com/ns/m.06br8
p482
ssVtext
p483
Vrugby
p484
sa(dp485
Vrelevance
p486
V0.248599
p487
sVcount
p488
V2
sVtype
p489
VPerson
p490
sVtext
p491
VJack Nowell
p492
sa(dp493
Vrelevance
p494
V0.237681
p495
sVcount
p496
V1
sVtype
p497
VFieldTerminology
p498
sVtext
p499
VWorld Cup
p500
sa(dp501
Vrelevance
p502
V0.236164
p503
sVcount
p504
V1
sVtype
p505
VOrganization
p506
sVdisambiguated
p507
(dp508
Vwebsite
p509
Vhttp://www.saracens.com/main.php
p510
sVyago
p511
Vhttp://yago-knowledge.org/resource/Saracens_F.C.
p512
sVname
p513
VSaracens F.C.
p514
sVfreebase
p515
Vhttp://rdf.freebase.com/ns/m.02yfml
p516
sVsubType
p517
(lp518
VSportsTeam
p519
aVFootballTeam
p520
asVdbpedia
p521
Vhttp://dbpedia.org/resource/Saracens_F.C.
p522
ssVtext
p523
VSaracens
p524
sasS'docEmotions'
p525
(dp526
Vanger
p527
V0.623376
p528
sVjoy
p529
V0.000128
p530
sVfear
p531
V0.002143
p532
sVsadness
p533
V0.003364
p534
sVdisgust
p535
V0.147491
p536
ssS'concepts'
p537
(lp538
(dp539
Vrelevance
p540
V0.957606
p541
sVtext
p542
VWales national rugby union team
p543
sVyago
p544
Vhttp://yago-knowledge.org/resource/Wales_national_rugby_union_team
p545
sVdbpedia
p546
Vhttp://dbpedia.org/resource/Wales_national_rugby_union_team
p547
sVfreebase
p548
Vhttp://rdf.freebase.com/ns/m.03b3v4
p549
sa(dp550
Vrelevance
p551
V0.394736
p552
sVtext
p553
VWelsh rugby union players
p554
sVdbpedia
p555
Vhttp://dbpedia.org/resource/Welsh_rugby_union_players
p556
sa(dp557
Vrelevance
p558
V0.393717
p559
sVtext
p560
VWales international rugby union players
p561
sVdbpedia
p562
Vhttp://dbpedia.org/resource/Wales_international_rugby_union_players
p563
sa(dp564
Vwebsite
p565
Vhttp://www.unofficialenglandrugby.co.uk
p566
sVyago
p567
Vhttp://yago-knowledge.org/resource/England_national_rugby_union_team
p568
sVtext
p569
VEngland national rugby union team
p570
sVdbpedia
p571
Vhttp://dbpedia.org/resource/England_national_rugby_union_team
p572
sVfreebase
p573
Vhttp://rdf.freebase.com/ns/m.0333v_
p574
sVrelevance
p575
V0.391235
p576
sa(dp577
Vrelevance
p578
V0.351742
p579
sVtext
p580
VIreland national rugby union team
p581
sVyago
p582
Vhttp://yago-knowledge.org/resource/Ireland_national_rugby_union_team
p583
sVdbpedia
p584
Vhttp://dbpedia.org/resource/Ireland_national_rugby_union_team
p585
sVfreebase
p586
Vhttp://rdf.freebase.com/ns/m.03t3zk
p587
sa(dp588
Vwebsite
p589
Vhttp://www.visitwales.com
p590
sVyago
p591
Vhttp://yago-knowledge.org/resource/Wales
p592
sVgeonames
p593
Vhttp://sws.geonames.org/2636718/
p594
sVtext
p595
VWales
p596
sVopencyc
p597
Vhttp://sw.opencyc.org/concept/Mx4rvVitvJwpEbGdrcN5Y29ycA
p598
sVdbpedia
p599
Vhttp://dbpedia.org/resource/Wales
p600
sVfreebase
p601
Vhttp://rdf.freebase.com/ns/m.0j5g9
p602
sVrelevance
p603
V0.323861
p604
sa(dp605
Vrelevance
p606
V0.312756
p607
sVtext
p608
VLeicester Tigers
p609
sVyago
p610
Vhttp://yago-knowledge.org/resource/Leicester_Tigers
p611
sVdbpedia
p612
Vhttp://dbpedia.org/resource/Leicester_Tigers
p613
sVfreebase
p614
Vhttp://rdf.freebase.com/ns/m.01szhj
p615
sa(dp616
Vwebsite
p617
Vhttp://www.nfl.com/rulebook/signals
p618
sVtext
p619
VAmerican football
p620
sVopencyc
p621
Vhttp://sw.opencyc.org/concept/Mx4rwG--HpwpEbGdrcN5Y29ycA
p622
sVdbpedia
p623
Vhttp://dbpedia.org/resource/American_football
p624
sVfreebase
p625
Vhttp://rdf.freebase.com/ns/m.0jm_
p626
sVrelevance
p627
V0.307909
p628
sasS'keywords'
p629
(lp630
(dp631
Vrelevance
p632
V0.958663
p633
sVtext
p634
VGrand Slam
p635
sa(dp636
Vrelevance
p637
V0.779228
p638
sVtext
p639
VEngland
p640
sa(dp641
Vrelevance
p642
V0.727976
p643
sVtext
p644
VMaro Itoje
p645
sa(dp646
Vrelevance
p647
V0.718408
p648
sVtext
p649
Vfinal moments North
p650
sa(dp651
Vrelevance
p652
V0.714136
p653
sVtext
p654
VEngland boss Eddie
p655
sa(dp656
Vrelevance
p657
V0.712127
p658
sVtext
p659
VEngland scrum-half Matt
p660
sa(dp661
Vrelevance
p662
V0.707557
p663
sVtext
p664
VJonathan Davies
p665
sa(dp666
Vrelevance
p667
V0.707238
p668
sVtext
p669
Vfly-half Jonathan Davies
p670
sa(dp671
Vrelevance
p672
V0.704317
p673
sVtext
p674
VEddie Jones
p675
sa(dp676
Vrelevance
p677
V0.702044
p678
sVtext
p679
VCraig Joubert
p680
sa(dp681
Vrelevance
p682
V0.701122
p683
sVtext
p684
Vcumulative 59-point swing
p685
sa(dp686
Vrelevance
p687
V0.696292
p688
sVtext
p689
Vskipper Sam Warburton
p690
sa(dp691
Vrelevance
p692
V0.69381
p693
sVtext
p694
VWarren Gatland
p695
sa(dp696
Vrelevance
p697
V0.693797
p698
sVtext
p699
Vdifferent game
p700
sa(dp701
Vrelevance
p702
V0.693669
p703
sVtext
p704
VWales boss Warren
p705
sa(dp706
Vrelevance
p707
V0.689596
p708
sVtext
p709
VWelsh defensive line
p710
sa(dp711
Vrelevance
p712
V0.688463
p713
sVtext
p714
VG. Davies
p715
sa(dp716
Vrelevance
p717
V0.68814
p718
sVtext
p719
Vreferee Craig Joubert
p720
sa(dp721
Vrelevance
p722
V0.688067
p723
sVtext
p724
Vlong inaccurate pass
p725
sa(dp726
Vrelevance
p727
V0.667104
p728
sVtext
p729
VDan Biggar
p730
sa(dp731
Vrelevance
p732
V0.651825
p733
sVtext
p734
VOwen Farrell
p735
sa(dp736
Vrelevance
p737
V0.651439
p738
sVtext
p739
Vresurgent Wales
p740
sa(dp741
Vrelevance
p742
V0.644044
p743
sVtext
p744
VWales hope
p745
sa(dp746
Vrelevance
p747
V0.639653
p748
sVtext
p749
Vlines Farrell
p750
sa(dp751
Vrelevance
p752
V0.635101
p753
sVtext
p754
Vfirst-half try
p755
sa(dp756
Vrelevance
p757
V0.634509
p758
sVtext
p759
Vcharge-down try
p760
sa(dp761
Vrelevance
p762
V0.633764
p763
sVtext
p764
Vquick penalties
p765
sa(dp766
Vrelevance
p767
V0.624213
p768
sVtext
p769
VGeorge North
p770
sa(dp771
Vrelevance
p772
V0.62384
p773
sVtext
p774
VJ. Davies
p775
sa(dp776
Vrelevance
p777
V0.623598
p778
sVtext
p779
VB. Davies
p780
sassS'oxford'
p781
(lp782
(dp783
VfaceRectangle
p784
(dp785
Vwidth
p786
I41
sVtop
p787
I144
sVleft
p788
I166
sVheight
p789
I41
ssVscores
p790
(dp791
Vsadness
p792
F0.32866410000000001
sVneutral
p793
F0.019425582100000002
sVcontempt
p794
F3.4751505199999998e-05
sVdisgust
p795
F0.0057265119999999996
sVanger
p796
F0.37762000000000001
sVsurprise
p797
F0.0153453723
sVfear
p798
F0.0154569689
sVhappiness
p799
F0.237726718
ssa(dp800
VfaceRectangle
p801
(dp802
Vwidth
p803
I38
sVtop
p804
I126
sVleft
p805
I623
sVheight
p806
I38
ssVscores
p807
(dp808
Vsadness
p809
F0.0120372437
sVneutral
p810
F0.71896863
sVcontempt
p811
F0.00059757666899999998
sVdisgust
p812
F0.00051188269999999998
sVanger
p813
F0.00091384289999999998
sVsurprise
p814
F0.042968913900000003
sVfear
p815
F0.00337125524
sVhappiness
p816
F0.22063063099999999
ssasS'targets'
p817
(dp818
S'love'
p819
I36
sS'angry'
p820
I6
sS'haha'
p821
I7
sS'likes'
p822
I1452
sS'sad'
p823
I5
ssa(dp824
g5
Vhttp://www.bbc.co.uk/news/magazine-35730298?ocid=socialflow_facebook&ns_mchannel=social&ns_campaign=bbcnews&ns_source=facebook
p825
sg7
V"I was kidnapped by a paedophile I met online"
p826
sg9
VAlicia Kozakiewicz was 13 years old when she slipped out of her home in Pittsburgh to meet someone she had been chatting to online. What followed was a nightmare. Now 27, Alicia has made it her mission to protect other children from what she went through, and has had a law named after her in several US states. This is her story in her own words.\u000aI remember the Christmas of 2001 was really wonderful and so was the first half of New Year's Day 2002.\u000aNew Year has always been a day of celebration for my family. We'd have a big meal - my mum would make pork and sauerkraut - and that year my mum was there, my dad, my brother, his girlfriend and my grandmother, and these are the last moments of my childhood that were peaceful. Where I was just Alicia.\u000aAt some point between dinner and dessert I asked my mother if I could go and lie down. I said I had a stomach ache. \u000aBut what happened was that I got up and slipped past the Christmas tree which was by the front door, and I opened the front door to meet this person that I thought was my friend.  \u000aThis wasn't in my character at all. I was a child that was really scared of the dark and I hated the cold - I still really hate the cold - and I never went outside alone after dark without an adult.\u000aI remember walking up the street just about a block or so and the streets were covered in ice and there was nobody out. What I remember most is the silence. How silencing snow can be. There were no dogs barking, there wasn't anything other than the snow crunching under my feet. I remember standing on the corner and this little voice finally spoke up - my intuition - and said, "Alicia what are you doing? This is really dangerous you need to go home."\u000aI turned around and started walking back, but then I heard my name being called - and the next thing I knew I was in a car with this man, and immediately I feared for my life.\u000aMy childhood up to that point had been an amazing one. For most of my childhood my mum stayed at home, so she was there with me all the time, whenever I needed her, and so was my brother who is nine years older than me.\u000aMy dad worked really long hours but he always left space for family time. So we were - and still are - a very close family. My childhood was filled with so much fun.\u000aRecently I had my old home movies transferred to digital and I've been going through them. Looking back I was just a really happy kid. I thought that people sang like they do in Disney movies, I just thought that was how people lived, so I was always singing to the trees or the rocks or to my shoes because I thought that was how happy people expressed themselves. And I was really saddened to find out that the world was not like a musical where everybody dances and everybody sings.\u000aIt was my older brother who introduced me to the internet. He was always playing games online, I think Diabolo was one of them. I wasn't interested in that particular game, but it did look like a board game and I realised that the internet was a great way to play these games with other people. That's really all I thought it was.\u000aAt that time the internet was really just entering the home and my parents had thought that they had given my brother and me this wonderful gift. They had talked to me about "stranger danger" but there is a difference between a stranger you meet on the street and the stranger you meet online. People online may be strangers at first, but then you learn about them, and soon they seem like friends.\u000aFind out more \u000aAlicia Kozakiewicz spoke to PM on Radio 4. Click here to hear to listen. \u000aIn 2001 and 2002 there were very few people educating children that the internet could be dangerous.\u000aI got a screenname and got online. My friends and I would talk about all sorts of things. It seemed like a time before kids realised that cyber bullying was a possibility and it seemed like everyone got along online. The most popular kids would talk to the less popular kids. I felt safe.\u000aThere was one guy, a boy who I thought was around my own age, that I didn't know, and he was into all the things that I was into. He listened to what I had to say day and night, giving me advice. He was somebody to complain to and to get comforted by over the eight or nine months before my abduction. Online grooming is very effective.\u000aHe was the one I walked out to see on New Year's Day and who kidnapped me in his car.\u000aHe was grabbing my hand so tightly that I thought it was broken and he was barking commands at me. Things like, "Be good, be quiet!" If I didn't obey, he said, he would put me in the trunk.\u000aHe sped off down my street and past my house. I thought, "Maybe he'll just drive around the block." Then, "Maybe he'll just drive to the next neighbourhood." I paid attention to the street signs and they went from being very familiar names to names that I couldn't recall being anywhere near my home.\u000aAfter some time the car reached a toll booth and in my mind I remember thinking, "This is my chance, this is when I'm going to be rescued because this person in the booth is going to see a crying child and think, 'What is going on?' And call the police and this whole thing will be over."\u000aBut the man in the toll booth didn't see me or think that there was anything wrong, and the car sped on.\u000aI remember looking out of the window and seeing the phone boxes and thinking, "What if I could get to one of them, what would I say to my family? How could I get out of this, let them know that I'm in danger?"\u000aThere are no words to explain the fear and terror of thinking this person could pull over and kill me at any moment. He continued to drive for about five hours from my Pittsburgh, Pennsylvania home to Virginia. Finally, the car stopped, he pulled me out of the car and dragged me into this house - and continued to drag me down a flight of stairs that seemed to go on forever in my mind. I'm sure it was a flight or two but it felt like it was an endless maze.\u000aOnce he'd got me into the basement, there was a door with a padlock on it and he took me inside. On the walls were all these devices that my 13-year-old mind just couldn't comprehend.   \u000aHe then removed my clothing and looked at me and said, "This is going to be really hard for you. It's OK, cry." \u000aAfter that he put a locking dog collar around my neck and dragged me upstairs to his bedroom and raped me. He chained me to the floor with this dog collar next to the bed. I was raped and beaten and tortured in that house for four days.\u000aI have to tell you that it's amazing the response I get sometimes when I say that. Sometimes people say, "You're so lucky, that's not that long." They really have said that. I want to make it clear that you cannot define pain by time, or what happened, it's how the experience affects the person. It's how it impacted them. Whether you're held captive for four days or abused by somebody you love for years, or molested for 15 seconds on a bus, it's your experience and your pain that defines it, not the length of time and not what actually occurred.\u000aWhile I did what I could to survive, no matter how humiliating or painful or disgusting, I had no control over my fate. When I did fight him I ended up with a broken nose. And he'd already kidnapped a child, he'd already done unspeakable things to me, why would murder be something that he couldn't do?\u000aOn the fourth day he said: "I'm beginning to like you too much. Tonight we're going to go for a ride." I knew in that moment there was nothing I could do. I knew he was going to kill me. That day he also fed me for the first time in four days and he left for work.\u000aI remember crying and praying, really praying  and I thought about all the things I would do if I were stronger, if I were a character in a superhero movie. I thought, "He's going to kill me, but I'm not going to go down without a fight and maybe I could win?" But then I realised that I'd already lost many times. I soon lost all hope.\u000aI thought about my parents a lot over those days. I knew that they were looking for me and that they loved me. I had no doubt in my mind that they would find me. They could move mountains, and they would do anything to keep me safe. I knew they wouldn't stop until they found me. The question was whether they would find me alive, or dead. I thought: "When was the last time that I told them I loved them? Did they know how much I loved them?"\u000aI started to accept my own death. I drifted into a dazed sort of state. But then I heard the sound of angry men banging on the door downstairs. Because I'd lost all hope I thought they were there to kill me, so I rolled underneath the bed to try to hide from them and stayed as quiet as possible. I heard them moving very quickly around the house. I also heard them shout, "Clear! Clear! Clear! Clear!" Now, I would know exactly what that meant but at that time I had no idea.\u000aI must have made some noise because I heard a man say, "Movement over there!" I saw boots come along the side of the bed. A man ordered me to crawl out from beneath the bed and to put my hands up. I remember dragging that cold, heavy chain out, and trying to put my hands up but also trying to cover myself at the same time. I had no clothing on. I was staring down the barrel of a gun. \u000aI thought, "This is when I'm going to die. This is it." Then the man turned around and I saw FBI on the back of his jacket, and all of these law enforcement agents rushed into the room. They cut the chain from around my neck and helped me up. They set me free. They gave me a second chance at life. These men and women, they are my angels.\u000aWhile I was held captive, my kidnapper broadcast himself abusing me online. One of the viewers recognised the little girl in this horrible video as the little girl from the missing posters. It is important to note, that the greater majority of children are rescued due to missing posters and alerts released on the internet, radio, TV, highway signs, digital billboards, mobile phones and so on. \u000aIf you come across a missing person flyer, please pay attention. \u000aThe viewer went to a phone box, called the FBI, and gave them the screenname of the abuser. Through this, the FBI found his IP address which led to me. It was a miracle. Essentially, one monster came forward about another. I'm so lucky. Had those law enforcement officers stopped for coffee, or had their car broken down, I might not be here with you now. He was due to arrive back to his house at 4.30pm and the law enforcement arrived at 4.10pm. This is the perfect example why, when a child is missing, every single second counts. \u000aEven today, people are shocked when they hear a story like mine. In 2002, when I was kidnapped, it seemed impossible for them to understand how this happened and that I was groomed. Simply, they blamed the victim, which sadly, is not much different from sexual assault cases of present day. However, there were those that were supportive and I hope they know how much I appreciate their care and concern.\u000aMy family and I vowed that we would make a difference and help to save other children and families. We realised that a factor of this ordeal was that no internet safety education was being taught in schools. After my own period of healing, at the age of 14, I began going into schools, giving presentations, and sharing my story. Today, nearly 14 years later, I am continuing my mission, sharing my story with people around the globe, and advising families on internet safety. \u000aAdditionally, I work alongside Protect to secure the passage of, Alicia's Law, named after me, in all 50 states of the US. Due to a lack of dedicated federal resources, less than 2% of known child exploitation cases are being investigated. Alicia's Law provides a dedicated steady stream of state-specific funding to the Internet Crimes Against Children (ICAC) Task Forces. By creating this new revenue stream, Alicia's Law builds permanent capacity for child rescue teams - revenue that will not fall victim to yearly fights over or cuts to the general budget.\u000aAlicia's Law has been passed in Virginia, California, Idaho, Kentucky, Texas, Tennessee, Arizona, Hawaii, and Washington. We are currently working on Alicia's Law in Wisconsin, Maryland, and South Carolina.\u000aI am now working on a masters degree in forensic psychology and am graduating in just a few months (yay!). I plan to work with children and their families who have been affected by abduction or child sexual exploitation. \u000aFor years I struggled with personal relationships. The most loving gentle touches could suddenly seem evil and full of harm. But, the day after I graduate I am getting married (bigger yay!). My fiance supports my mission and he is a great guy but above all he is a great friend.\u000aWhat is really important to remember, and took a long time for me to learn, is that rape is all about power and control, and love never is.\u000aIn 2003 Alicia Kozakiewicz's kidnapper, Scott Tyree, pleaded guilty to taking a minor across state lines for the purpose of sex and producing sexually explicit images. He was sentenced to 19 years and seven months in prison.\u000aSubscribe to the BBC News Magazine's email newsletter  to get articles sent to your inbox.\u000a
p827
sg11
Vhttps://s3.amazonaws.com/prod-cust-photo-posts-jfaikqealaka/3065-55184dfc661ac1721a0c715326298c54.jpg
p828
sg13
(dp829
g15
(dp830
Vmixed
p831
V1
sVscore
p832
V-0.163556
p833
sVtype
p834
Vnegative
p835
ssg22
(lp836
(dp837
Vscore
p838
V0.50052
p839
sVlabel
p840
V/family and parenting/children
p841
sa(dp842
Vconfident
p843
Vno
p844
sVscore
p845
V0.39117
p846
sVlabel
p847
V/art and entertainment/movies and tv/movies
p848
sa(dp849
Vconfident
p850
Vno
p851
sVscore
p852
V0.354998
p853
sVlabel
p854
V/automotive and vehicles/cars
p855
sasg43
(lp856
(dp857
Vrelevance
p858
V0.795027
p859
sVcount
p860
V11
p861
sVtype
p862
VPerson
p863
sVtext
p864
VAlicia Kozakiewicz
p865
sa(dp866
Vrelevance
p867
V0.482011
p868
sVcount
p869
V5
sVtype
p870
VFieldTerminology
p871
sVtext
p872
Vthe house
p873
sa(dp874
Vrelevance
p875
V0.399852
p876
sVcount
p877
V2
sVtype
p878
VCountry
p879
sVdisambiguated
p880
(dp881
Vwebsite
p882
Vhttp://www.usa.gov/
p883
sVyago
p884
Vhttp://yago-knowledge.org/resource/United_States
p885
sVname
p886
VUnited States
p887
sVfreebase
p888
Vhttp://rdf.freebase.com/ns/m.09c7w0
p889
sVopencyc
p890
Vhttp://sw.opencyc.org/concept/Mx4rvVikKpwpEbGdrcN5Y29ycA
p891
sVsubType
p892
(lp893
VLocation
p894
aVRegion
p895
aVAdministrativeDivision
p896
aVGovernmentalJurisdiction
p897
aVFilmEditor
p898
asVdbpedia
p899
Vhttp://dbpedia.org/resource/United_States
p900
sVciaFactbook
p901
Vhttp://www4.wiwiss.fu-berlin.de/factbook/resource/United_States
p902
ssVtext
p903
VUS
p904
sa(dp905
Vrelevance
p906
V0.39984
p907
sVcount
p908
V2
sVtype
p909
VHoliday
p910
sVtext
p911
VNew Year's Day
p912
sa(dp913
Vrelevance
p914
V0.379551
p915
sVcount
p916
V2
sVtype
p917
VCity
p918
sVdisambiguated
p919
(dp920
Vwebsite
p921
Vhttp://www.city.pittsburgh.pa.us/
p922
sVfreebase
p923
Vhttp://rdf.freebase.com/ns/m.068p2
p924
sVdbpedia
p925
Vhttp://dbpedia.org/resource/Pittsburgh
p926
sVname
p927
VPittsburgh
p928
ssVtext
p929
VPittsburgh
p930
sa(dp931
Vrelevance
p932
V0.357887
p933
sVcount
p934
V1
sVtype
p935
VHoliday
p936
sVdisambiguated
p937
(dp938
Vyago
p939
Vhttp://yago-knowledge.org/resource/Christmas
p940
sVname
p941
VChristmas
p942
sVfreebase
p943
Vhttp://rdf.freebase.com/ns/m.01vq3
p944
sVopencyc
p945
Vhttp://sw.opencyc.org/concept/Mx4rwPfXpZwpEbGdrcN5Y29ycA
p946
sVsubType
p947
(lp948
sVdbpedia
p949
Vhttp://dbpedia.org/resource/Christmas
p950
ssVtext
p951
VChristmas
p952
sa(dp953
Vrelevance
p954
V0.352836
p955
sVcount
p956
V1
sVtype
p957
VHealthCondition
p958
sVtext
p959
Vstomach ache
p960
sa(dp961
Vrelevance
p962
V0.338845
p963
sVcount
p964
V1
sVtype
p965
VHoliday
p966
sVtext
p967
VNew Year
p968
sa(dp969
Vrelevance
p970
V0.336463
p971
sVcount
p972
V1
sVtype
p973
VCompany
p974
sVdisambiguated
p975
(dp976
Vwebsite
p977
Vhttp://www.disney.com
p978
sVyago
p979
Vhttp://yago-knowledge.org/resource/The_Walt_Disney_Company
p980
sVname
p981
VThe Walt Disney Company
p982
sVfreebase
p983
Vhttp://rdf.freebase.com/ns/m.09b3v
p984
sVcrunchbase
p985
Vhttp://www.crunchbase.com/company/the-walt-disney-company
p986
sVdbpedia
p987
Vhttp://dbpedia.org/resource/The_Walt_Disney_Company
p988
ssVtext
p989
VDisney
p990
sa(dp991
Vrelevance
p992
V0.333544
p993
sVcount
p994
V2
sVtype
p995
VStateOrCounty
p996
sVdisambiguated
p997
(dp998
Vwebsite
p999
Vhttp://www.virginia.gov
p1000
sVyago
p1001
Vhttp://yago-knowledge.org/resource/Virginia
p1002
sVname
p1003
VVirginia
p1004
sVfreebase
p1005
Vhttp://rdf.freebase.com/ns/m.0f2wcp
p1006
sVopencyc
p1007
Vhttp://sw.opencyc.org/concept/Mx4rvViztZwpEbGdrcN5Y29ycA
p1008
sVsubType
p1009
(lp1010
VLocation
p1011
aVPoliticalDistrict
p1012
aVAdministrativeDivision
p1013
aVGovernmentalJurisdiction
p1014
aVUSState
p1015
asVdbpedia
p1016
Vhttp://dbpedia.org/resource/Virginia
p1017
ssVtext
p1018
VVirginia
p1019
sa(dp1020
Vrelevance
p1021
V0.320042
p1022
sVcount
p1023
V2
sVtype
p1024
VOrganization
p1025
sVdisambiguated
p1026
(dp1027
Vwebsite
p1028
Vhttp://www.fbi.gov
p1029
sVyago
p1030
Vhttp://yago-knowledge.org/resource/Federal_Bureau_of_Investigation
p1031
sVname
p1032
VFederal Bureau of Investigation
p1033
sVfreebase
p1034
Vhttp://rdf.freebase.com/ns/m.02_1m
p1035
sVopencyc
p1036
Vhttp://sw.opencyc.org/concept/Mx4rvWJE0JwpEbGdrcN5Y29ycA
p1037
sVsubType
p1038
(lp1039
VGovernmentAgency
p1040
aVGovernmentalBody
p1041
asVdbpedia
p1042
Vhttp://dbpedia.org/resource/Federal_Bureau_of_Investigation
p1043
sVgeo
p1044
V38.894465 -77.024503
p1045
ssVtext
p1046
VFBI
p1047
sa(dp1048
Vrelevance
p1049
V0.302573
p1050
sVcount
p1051
V1
sVtype
p1052
VOrganization
p1053
sVdisambiguated
p1054
(dp1055
Vwebsite
p1056
Vhttp://www.fbiradio.com/
p1057
sVsubType
p1058
(lp1059
VBroadcast
p1060
aVRadioStation
p1061
asVdbpedia
p1062
Vhttp://dbpedia.org/resource/FBi_Radio
p1063
sVname
p1064
VFBi Radio
p1065
sVfreebase
p1066
Vhttp://rdf.freebase.com/ns/m.04fg83
p1067
ssVtext
p1068
VFBI
p1069
sa(dp1070
Vrelevance
p1071
V0.299151
p1072
sVcount
p1073
V1
sVtype
p1074
VFieldTerminology
p1075
sVtext
p1076
Vcyber bullying
p1077
sa(dp1078
Vrelevance
p1079
V0.299142
p1080
sVcount
p1081
V1
sVtype
p1082
VOrganization
p1083
sVdisambiguated
p1084
(dp1085
Vwebsite
p1086
Vhttp://www.icac.org/
p1087
sVsubType
p1088
(lp1089
sVdbpedia
p1090
Vhttp://dbpedia.org/resource/International_Cotton_Advisory_Committee
p1091
sVname
p1092
VInternational Cotton Advisory Committee
p1093
sVfreebase
p1094
Vhttp://rdf.freebase.com/ns/m.04zw4m0
p1095
ssVtext
p1096
VICAC
p1097
sa(dp1098
Vrelevance
p1099
V0.296062
p1100
sVcount
p1101
V1
sVtype
p1102
VPrintMedia
p1103
sVtext
p1104
VBBC News Magazine
p1105
sa(dp1106
Vrelevance
p1107
V0.284754
p1108
sVcount
p1109
V1
sVtype
p1110
VFieldTerminology
p1111
sVtext
p1112
Vlaw enforcement officers
p1113
sa(dp1114
Vrelevance
p1115
V0.284489
p1116
sVcount
p1117
V1
sVtype
p1118
VCrime
p1119
sVtext
p1120
Vrape
p1121
sa(dp1122
Vrelevance
p1123
V0.280454
p1124
sVcount
p1125
V1
sVtype
p1126
VCrime
p1127
sVtext
p1128
Vmurder
p1129
sa(dp1130
Vrelevance
p1131
V0.278675
p1132
sVcount
p1133
V1
sVtype
p1134
VCity
p1135
sVdisambiguated
p1136
(dp1137
Vwebsite
p1138
Vhttp://www.dc.gov/
p1139
sVyago
p1140
Vhttp://yago-knowledge.org/resource/Washington,_D.C.
p1141
sVname
p1142
VWashington, D.C.
p1143
sVfreebase
p1144
Vhttp://rdf.freebase.com/ns/m.0rh6k
p1145
sVopencyc
p1146
Vhttp://sw.opencyc.org/concept/Mx4rvpFXOpwpEbGdrcN5Y29ycA
p1147
sVsubType
p1148
(lp1149
VAdministrativeDivision
p1150
aVGovernmentalJurisdiction
p1151
aVMilitaryPost
p1152
aVPlaceWithNeighborhoods
p1153
aVUSCounty
p1154
asVdbpedia
p1155
Vhttp://dbpedia.org/resource/Washington,_D.C.
p1156
ssVtext
p1157
VWashington
p1158
sa(dp1159
Vrelevance
p1160
V0.270791
p1161
sVcount
p1162
V1
sVtype
p1163
VFieldTerminology
p1164
sVtext
p1165
Vlaw enforcement agents
p1166
sa(dp1167
Vrelevance
p1168
V0.269435
p1169
sVcount
p1170
V1
sVtype
p1171
VFieldTerminology
p1172
sVtext
p1173
Vmobile phones
p1174
sa(dp1175
Vrelevance
p1176
V0.269038
p1177
sVcount
p1178
V1
sVtype
p1179
VStateOrCounty
p1180
sVdisambiguated
p1181
(dp1182
Vwebsite
p1183
Vhttp://www.wisconsin.gov
p1184
sVyago
p1185
Vhttp://yago-knowledge.org/resource/Wisconsin
p1186
sVname
p1187
VWisconsin
p1188
sVfreebase
p1189
Vhttp://rdf.freebase.com/ns/m.0824r
p1190
sVopencyc
p1191
Vhttp://sw.opencyc.org/concept/Mx4rvVi96pwpEbGdrcN5Y29ycA
p1192
sVsubType
p1193
(lp1194
VLocation
p1195
aVPoliticalDistrict
p1196
aVAdministrativeDivision
p1197
aVGovernmentalJurisdiction
p1198
aVUSState
p1199
asVdbpedia
p1200
Vhttp://dbpedia.org/resource/Wisconsin
p1201
sVgeo
p1202
V44.5 -89.5
p1203
ssVtext
p1204
VWisconsin
p1205
sa(dp1206
Vrelevance
p1207
V0.26537
p1208
sVcount
p1209
V1
sVtype
p1210
VCrime
p1211
sVtext
p1212
Vassault
p1213
sa(dp1214
Vrelevance
p1215
V0.264607
p1216
sVcount
p1217
V1
sVtype
p1218
VFieldTerminology
p1219
sVtext
p1220
Vlaw enforcement
p1221
sa(dp1222
Vrelevance
p1223
V0.256043
p1224
sVcount
p1225
V1
sVtype
p1226
VStateOrCounty
p1227
sVdisambiguated
p1228
(dp1229
Vwebsite
p1230
Vhttp://www.sc.gov
p1231
sVyago
p1232
Vhttp://yago-knowledge.org/resource/South_Carolina
p1233
sVgeonames
p1234
Vhttp://sws.geonames.org/4597040/
p1235
sVfreebase
p1236
Vhttp://rdf.freebase.com/ns/m.06yxd
p1237
sVopencyc
p1238
Vhttp://sw.opencyc.org/concept/Mx4rvViphZwpEbGdrcN5Y29ycA
p1239
sVsubType
p1240
(lp1241
VLocation
p1242
aVPoliticalDistrict
p1243
aVAdministrativeDivision
p1244
aVGovernmentalJurisdiction
p1245
aVUSState
p1246
asVdbpedia
p1247
Vhttp://dbpedia.org/resource/South_Carolina
p1248
sVname
p1249
VSouth Carolina
p1250
ssVtext
p1251
VSouth Carolina
p1252
sa(dp1253
Vrelevance
p1254
V0.250781
p1255
sVcount
p1256
V1
sVtype
p1257
VFieldTerminology
p1258
sVtext
p1259
VIP address
p1260
sa(dp1261
Vrelevance
p1262
V0.249575
p1263
sVcount
p1264
V1
sVtype
p1265
VStateOrCounty
p1266
sVtext
p1267
VPennsylvania
p1268
sa(dp1269
Vrelevance
p1270
V0.245284
p1271
sVcount
p1272
V1
sVtype
p1273
VPerson
p1274
sVtext
p1275
VScott Tyree
p1276
sa(dp1277
Vrelevance
p1278
V0.24398
p1279
sVcount
p1280
V1
sVtype
p1281
VStateOrCounty
p1282
sVdisambiguated
p1283
(dp1284
Vwebsite
p1285
Vhttp://www.maryland.gov
p1286
sVyago
p1287
Vhttp://yago-knowledge.org/resource/Maryland
p1288
sVcensus
p1289
Vhttp://www.rdfabout.com/rdf/usgov/geo/us/md
p1290
sVgeonames
p1291
Vhttp://sws.geonames.org/4361885/
p1292
sVfreebase
p1293
Vhttp://rdf.freebase.com/ns/m.04rrd
p1294
sVopencyc
p1295
Vhttp://sw.opencyc.org/concept/Mx4rvViu2pwpEbGdrcN5Y29ycA
p1296
sVsubType
p1297
(lp1298
VLocation
p1299
aVPoliticalDistrict
p1300
aVAdministrativeDivision
p1301
aVGovernmentalJurisdiction
p1302
aVUSState
p1303
aVAirportOperator
p1304
asVdbpedia
p1305
Vhttp://dbpedia.org/resource/Maryland
p1306
sVname
p1307
VMaryland
p1308
ssVtext
p1309
VMaryland
p1310
sa(dp1311
Vrelevance
p1312
V0.242502
p1313
sVcount
p1314
V1
sVtype
p1315
VStateOrCounty
p1316
sVdisambiguated
p1317
(dp1318
Vyago
p1319
Vhttp://yago-knowledge.org/resource/Idaho
p1320
sVname
p1321
VIdaho
p1322
sVfreebase
p1323
Vhttp://rdf.freebase.com/ns/m.03s5t
p1324
sVopencyc
p1325
Vhttp://sw.opencyc.org/concept/Mx4rvVindZwpEbGdrcN5Y29ycA
p1326
sVsubType
p1327
(lp1328
VLocation
p1329
aVPoliticalDistrict
p1330
aVAdministrativeDivision
p1331
aVGovernmentalJurisdiction
p1332
aVUSState
p1333
asVdbpedia
p1334
Vhttp://dbpedia.org/resource/Idaho
p1335
ssVtext
p1336
VIdaho
p1337
sasg525
(dp1338
Vanger
p1339
V0.407877
p1340
sVjoy
p1341
V2e-06
p1342
sVfear
p1343
V0.036535
p1344
sVsadness
p1345
V0.001952
p1346
sVdisgust
p1347
V0.003186
p1348
ssg537
(lp1349
(dp1350
Vrelevance
p1351
V0.880802
p1352
sVtext
p1353
VEnglish-language films
p1354
sVdbpedia
p1355
Vhttp://dbpedia.org/resource/English-language_films
p1356
sa(dp1357
Vrelevance
p1358
V0.744802
p1359
sVtext
p1360
VThought
p1361
sVopencyc
p1362
Vhttp://sw.opencyc.org/concept/Mx4rvViHGJwpEbGdrcN5Y29ycA
p1363
sVdbpedia
p1364
Vhttp://dbpedia.org/resource/Thought
p1365
sVfreebase
p1366
Vhttp://rdf.freebase.com/ns/m.097vm
p1367
sa(dp1368
Vrelevance
p1369
V0.737793
p1370
sVtext
p1371
VRape
p1372
sVopencyc
p1373
Vhttp://sw.opencyc.org/concept/Mx4rwQrfCZwpEbGdrcN5Y29ycA
p1374
sVdbpedia
p1375
Vhttp://dbpedia.org/resource/Rape
p1376
sVfreebase
p1377
Vhttp://rdf.freebase.com/ns/m.06g5z
p1378
sa(dp1379
Vwebsite
p1380
Vhttp://www.aerosmith.com
p1381
sVyago
p1382
Vhttp://yago-knowledge.org/resource/Aerosmith
p1383
sVtext
p1384
VAerosmith
p1385
sVmusicBrainz
p1386
Vhttp://zitgist.com/music/artist/3d2b98e5-556f-4451-a3ff-c50ea18d57cb
p1387
sVdbpedia
p1388
Vhttp://dbpedia.org/resource/Aerosmith
p1389
sVfreebase
p1390
Vhttp://rdf.freebase.com/ns/m.0134pk
p1391
sVrelevance
p1392
V0.732225
p1393
sasg629
(lp1394
(dp1395
Vrelevance
p1396
V0.908773
p1397
sVtext
p1398
VAlicia Kozakiewicz
p1399
sa(dp1400
Vrelevance
p1401
V0.860104
p1402
sVtext
p1403
Vtime
p1404
sa(dp1405
Vrelevance
p1406
V0.822718
p1407
sVtext
p1408
Vlaw enforcement
p1409
sa(dp1410
Vrelevance
p1411
V0.77426
p1412
sVtext
p1413
Vpeople
p1414
sa(dp1415
Vrelevance
p1416
V0.77288
p1417
sVtext
p1418
Vold home movies
p1419
sa(dp1420
Vrelevance
p1421
V0.760295
p1422
sVtext
p1423
Vpopular kids
p1424
sa(dp1425
Vrelevance
p1426
V0.758677
p1427
sVtext
p1428
Vlaw enforcement agents
p1429
sa(dp1430
Vrelevance
p1431
V0.758066
p1432
sVtext
p1433
Vchild rescue teams
p1434
sa(dp1435
Vrelevance
p1436
V0.7579
p1437
sVtext
p1438
Vdog collar
p1439
sa(dp1440
Vrelevance
p1441
V0.755954
p1442
sVtext
p1443
Vlaw enforcement officers
p1444
sa(dp1445
Vrelevance
p1446
V0.753513
p1447
sVtext
p1448
Vtoll booth
p1449
sa(dp1450
Vrelevance
p1451
V0.752861
p1452
sVtext
p1453
Vchild exploitation cases
p1454
sa(dp1455
Vrelevance
p1456
V0.751803
p1457
sVtext
p1458
Vinternet safety education
p1459
sa(dp1460
Vrelevance
p1461
V0.751296
p1462
sVtext
p1463
Vchild sexual exploitation
p1464
sa(dp1465
Vrelevance
p1466
V0.750466
p1467
sVtext
p1468
VBBC News Magazine
p1469
sa(dp1470
Vrelevance
p1471
V0.746869
p1472
sVtext
p1473
Vsexually explicit images
p1474
sa(dp1475
Vrelevance
p1476
V0.745445
p1477
sVtext
p1478
Vloving gentle touches
p1479
sa(dp1480
Vrelevance
p1481
V0.743676
p1482
sVtext
p1483
Vdedicated steady stream
p1484
sa(dp1485
Vrelevance
p1486
V0.742585
p1487
sVtext
p1488
Vlittle girl
p1489
sa(dp1490
Vrelevance
p1491
V0.74156
p1492
sVtext
p1493
Vsexual assault cases
p1494
sa(dp1495
Vrelevance
p1496
V0.740737
p1497
sVtext
p1498
Vnew revenue stream
p1499
sa(dp1500
Vrelevance
p1501
V0.725865
p1502
sVtext
p1503
Vcar
p1504
sa(dp1505
Vrelevance
p1506
V0.712876
p1507
sVtext
p1508
Vfamily time
p1509
sa(dp1510
Vrelevance
p1511
V0.707398
p1512
sVtext
p1513
Vchildren
p1514
sa(dp1515
Vrelevance
p1516
V0.702711
p1517
sVtext
p1518
Vstomach ache
p1519
sa(dp1520
Vrelevance
p1521
V0.698722
p1522
sVtext
p1523
VChristmas tree
p1524
sa(dp1525
Vrelevance
p1526
V0.697876
p1527
sVtext
p1528
Vbig meal
p1529
sa(dp1530
Vrelevance
p1531
V0.695767
p1532
sVtext
p1533
Vclose family
p1534
sa(dp1535
Vrelevance
p1536
V0.695475
p1537
sVtext
p1538
Vlong time
p1539
sa(dp1540
Vrelevance
p1541
V0.694113
p1542
sVtext
p1543
VPennsylvania home
p1544
sassg781
(lp1545
sg817
(dp1546
g819
I1
sg820
I48
sg821
I0
sg822
I906
sg823
I86
ssa(dp1547
g5
Vhttp://www.bbc.co.uk/newsbeat/article/35794208/two-injured-after-iron-maiden-plane-gets-damaged-in-chile?ocid=socialflow_facebook&ns_mchannel=social&ns_campaign=bbcnews&ns_source=facebook
p1548
sg7
VTwo injured after Iron Maiden plane gets damaged
p1549
sg9
VIron Maiden's famous Boeing 747 has been damaged at an Airport in Santiago, Chile.\u000aOn their website the band explained that they hope their gigs in Argentina next week will "go ahead as planned". \u000aWhile being towed a steering pin in a tow truck fell out, meaning it collided with a ground tug as it tried to make a turn.\u000aTwo of the ground tug operators were injured and had to be taken to hospital. \u000aThe band say they will "closely monitor their progress".\u000aThe plane's three times the weight of the Boeing 757 used on Iron Maiden's previous tours in 2008, 2009 and 2011.\u000aAs for the aircraft the undercarriage is reportedly badly damaged, and two new engines might be needed.\u000aThe band's statement continued: "Fortunately the 20 tons of equipment had not been loaded onto Ed Force One at the time of the accident. \u000a"Although this is tragic for our beautiful plane we do not expect this to affect our concert schedule including the next 2 shows in Cordoba and Buenos Aires. \u000a"We hope to find a new Ed Force One to continue this adventure with us in the near future. "\u000aImage caption Vocalist and licensed pilot Bruce Dickinson had been flying his band mates around on their latest tour\u000aBut the band were keen to end on a high note, saying: "Our visit to Chile was a huge success with 58,000 fans coming to the show.\u000a"Totally brilliant as ever in the Stadium Nacional last night.  We love you guys!"\u000aFind us on Instagram at BBCNewsbeat  and follow us on Snapchat, search for bbc_newsbeat\u000a Copyright  2016 BBC. The BBC is not responsible for the content of external sites. Read about our approach to external linking.  \u000a
p1550
sg11
Vhttps://s3.amazonaws.com/prod-cust-photo-posts-jfaikqealaka/3065-f91e826aa8d101dde2fbb2d08f258165.jpg
p1551
sg13
(dp1552
g15
(dp1553
Vmixed
p1554
V1
sVscore
p1555
V0.0503685
p1556
sVtype
p1557
Vpositive
p1558
ssg22
(lp1559
(dp1560
Vscore
p1561
V0.553803
p1562
sVlabel
p1563
V/society/welfare/healthcare/hospital
p1564
sa(dp1565
Vscore
p1566
V0.549551
p1567
sVlabel
p1568
V/business and industrial/advertising and marketing/advertising
p1569
sa(dp1570
Vscore
p1571
V0.524506
p1572
sVlabel
p1573
V/automotive and vehicles/cars
p1574
sasg43
(lp1575
(dp1576
Vrelevance
p1577
V0.969677
p1578
sVcount
p1579
V2
sVtype
p1580
VCompany
p1581
sVdisambiguated
p1582
(dp1583
Vwebsite
p1584
Vhttp://www.boeing.com/
p1585
sVyago
p1586
Vhttp://yago-knowledge.org/resource/Boeing
p1587
sVname
p1588
VBoeing
p1589
sVfreebase
p1590
Vhttp://rdf.freebase.com/ns/m.0178g
p1591
sVsubType
p1592
(lp1593
VAircraftDesigner
p1594
aVAircraftManufacturer
p1595
aVProjectParticipant
p1596
aVRocketManufacturer
p1597
aVSpacecraftManufacturer
p1598
asVcrunchbase
p1599
Vhttp://www.crunchbase.com/company/boeing
p1600
sVdbpedia
p1601
Vhttp://dbpedia.org/resource/Boeing
p1602
ssVtext
p1603
VBoeing
p1604
sa(dp1605
Vrelevance
p1606
V0.910174
p1607
sVcount
p1608
V2
sVtype
p1609
VCountry
p1610
sVdisambiguated
p1611
(dp1612
Vwebsite
p1613
Vhttp://www.thisischile.cl/
p1614
sVyago
p1615
Vhttp://yago-knowledge.org/resource/Chile
p1616
sVname
p1617
VChile
p1618
sVfreebase
p1619
Vhttp://rdf.freebase.com/ns/m.01p1v
p1620
sVopencyc
p1621
Vhttp://sw.opencyc.org/concept/Mx4rvViUkZwpEbGdrcN5Y29ycA
p1622
sVsubType
p1623
(lp1624
VLocation
p1625
aVGovernmentalJurisdiction
p1626
asVdbpedia
p1627
Vhttp://dbpedia.org/resource/Chile
p1628
sVciaFactbook
p1629
Vhttp://www4.wiwiss.fu-berlin.de/factbook/resource/Chile
p1630
ssVtext
p1631
VChile
p1632
sa(dp1633
Vrelevance
p1634
V0.886985
p1635
sVcount
p1636
V1
sVtype
p1637
VOrganization
p1638
sVdisambiguated
p1639
(dp1640
Vwebsite
p1641
Vhttp://www.ironmaiden.com/
p1642
sVyago
p1643
Vhttp://yago-knowledge.org/resource/Iron_Maiden
p1644
sVname
p1645
VIron Maiden
p1646
sVfreebase
p1647
Vhttp://rdf.freebase.com/ns/m.014_xj
p1648
sVopencyc
p1649
Vhttp://sw.opencyc.org/concept/Mx4rv_L_PJwpEbGdrcN5Y29ycA
p1650
sVdbpedia
p1651
Vhttp://dbpedia.org/resource/Iron_Maiden
p1652
ssVtext
p1653
VEd Force One
p1654
sa(dp1655
Vrelevance
p1656
V0.727318
p1657
sVcount
p1658
V2
sVtype
p1659
VCompany
p1660
sVtext
p1661
VBBC
p1662
sa(dp1663
Vrelevance
p1664
V0.699394
p1665
sVcount
p1666
V1
sVtype
p1667
VGeographicFeature
p1668
sVtext
p1669
VEd Force
p1670
sa(dp1671
Vrelevance
p1672
V0.636237
p1673
sVcount
p1674
V1
sVtype
p1675
VPerson
p1676
sVdisambiguated
p1677
(dp1678
Vwebsite
p1679
Vhttp://www.screamforme.com/
p1680
sVyago
p1681
Vhttp://yago-knowledge.org/resource/Bruce_Dickinson
p1682
sVname
p1683
VBruce Dickinson
p1684
sVfreebase
p1685
Vhttp://rdf.freebase.com/ns/m.01lvl5
p1686
sVsubType
p1687
(lp1688
VComposition
p1689
aVMusicalArtist
p1690
aVBroadcastArtist
p1691
aVGuitarist
p1692
aVMusicalGroupMember
p1693
aVTVActor
p1694
asVdbpedia
p1695
Vhttp://dbpedia.org/resource/Bruce_Dickinson
p1696
sVmusicBrainz
p1697
Vhttp://zitgist.com/music/artist/50698127-f6f4-4c0c-8010-db98c21100e1
p1698
ssVtext
p1699
VBruce Dickinson
p1700
sa(dp1701
Vrelevance
p1702
V0.634269
p1703
sVcount
p1704
V1
sVtype
p1705
VCountry
p1706
sVdisambiguated
p1707
(dp1708
Vwebsite
p1709
Vhttp://www.en.argentina.ar
p1710
sVyago
p1711
Vhttp://yago-knowledge.org/resource/Argentina
p1712
sVname
p1713
VArgentina
p1714
sVfreebase
p1715
Vhttp://rdf.freebase.com/ns/m.0jgd
p1716
sVopencyc
p1717
Vhttp://sw.opencyc.org/concept/Mx4rvVjX8ZwpEbGdrcN5Y29ycA
p1718
sVsubType
p1719
(lp1720
VLocation
p1721
aVRegion
p1722
aVGovernmentalJurisdiction
p1723
asVdbpedia
p1724
Vhttp://dbpedia.org/resource/Argentina
p1725
sVciaFactbook
p1726
Vhttp://www4.wiwiss.fu-berlin.de/factbook/resource/Argentina
p1727
sVgeo
p1728
V-26.25 -53.63333333333333
p1729
ssVtext
p1730
VArgentina
p1731
sa(dp1732
Vrelevance
p1733
V0.622665
p1734
sVcount
p1735
V1
sVtype
p1736
VCity
p1737
sVdisambiguated
p1738
(dp1739
Vfreebase
p1740
Vhttp://rdf.freebase.com/ns/m.0dlqv
p1741
sVdbpedia
p1742
Vhttp://dbpedia.org/resource/Santiago
p1743
sVname
p1744
VSantiago
p1745
ssVtext
p1746
VSantiago
p1747
sa(dp1748
Vrelevance
p1749
V0.588458
p1750
sVcount
p1751
V1
sVtype
p1752
VGeographicFeature
p1753
sVtext
p1754
VStadium Nacional
p1755
sa(dp1756
Vrelevance
p1757
V0.578114
p1758
sVcount
p1759
V1
sVtype
p1760
VCity
p1761
sVdisambiguated
p1762
(dp1763
Vwebsite
p1764
Vhttp://www.bue.gov.ar/home/index.php?&lang=en
p1765
sVyago
p1766
Vhttp://yago-knowledge.org/resource/Buenos_Aires
p1767
sVname
p1768
VBuenos Aires
p1769
sVfreebase
p1770
Vhttp://rdf.freebase.com/ns/m.01ly5m
p1771
sVsubType
p1772
(lp1773
VAdministrativeDivision
p1774
aVGovernmentalJurisdiction
p1775
aVOlympicBiddingCity
p1776
aVPlaceWithNeighborhoods
p1777
asVdbpedia
p1778
Vhttp://dbpedia.org/resource/Buenos_Aires
p1779
sVgeo
p1780
V-34.60333333333333 -58.38166666666667
p1781
ssVtext
p1782
VBuenos Aires
p1783
sa(dp1784
Vrelevance
p1785
V0.535061
p1786
sVcount
p1787
V1
sVtype
p1788
VCity
p1789
sVtext
p1790
VCordoba
p1791
sa(dp1792
Vrelevance
p1793
V0.49579
p1794
sVcount
p1795
V1
sVtype
p1796
VCity
p1797
sVtext
p1798
VSnapchat
p1799
sa(dp1800
Vrelevance
p1801
V0.49579
p1802
sVcount
p1803
V1
sVtype
p1804
VQuantity
p1805
sVtext
p1806
V20 tons
p1807
sasg525
(dp1808
Vanger
p1809
V0.034561
p1810
sVjoy
p1811
V0.000813
p1812
sVfear
p1813
V0.073768
p1814
sVsadness
p1815
V0.079888
p1816
sVdisgust
p1817
V0.097305
p1818
ssg537
(lp1819
(dp1820
Vwebsite
p1821
Vhttp://www.screamforme.com/
p1822
sVyago
p1823
Vhttp://yago-knowledge.org/resource/Bruce_Dickinson
p1824
sVtext
p1825
VBruce Dickinson
p1826
sVmusicBrainz
p1827
Vhttp://zitgist.com/music/artist/50698127-f6f4-4c0c-8010-db98c21100e1
p1828
sVdbpedia
p1829
Vhttp://dbpedia.org/resource/Bruce_Dickinson
p1830
sVfreebase
p1831
Vhttp://rdf.freebase.com/ns/m.01lvl5
p1832
sVrelevance
p1833
V0.943812
p1834
sa(dp1835
Vwebsite
p1836
Vhttp://www.en.argentina.ar
p1837
sVyago
p1838
Vhttp://yago-knowledge.org/resource/Argentina
p1839
sVtext
p1840
VArgentina
p1841
sVopencyc
p1842
Vhttp://sw.opencyc.org/concept/Mx4rvVjX8ZwpEbGdrcN5Y29ycA
p1843
sVdbpedia
p1844
Vhttp://dbpedia.org/resource/Argentina
p1845
sVfreebase
p1846
Vhttp://rdf.freebase.com/ns/m.0jgd
p1847
sVrelevance
p1848
V0.792456
p1849
sVciaFactbook
p1850
Vhttp://www4.wiwiss.fu-berlin.de/factbook/resource/Argentina
p1851
sVgeo
p1852
V-26.25 -53.63333333333333
p1853
sa(dp1854
Vyago
p1855
Vhttp://yago-knowledge.org/resource/Boeing_707
p1856
sVtext
p1857
VBoeing 707
p1858
sVopencyc
p1859
Vhttp://sw.opencyc.org/concept/Mx4rwD99d5wpEbGdrcN5Y29ycA
p1860
sVdbpedia
p1861
Vhttp://dbpedia.org/resource/Boeing_707
p1862
sVfreebase
p1863
Vhttp://rdf.freebase.com/ns/m.0hqnc
p1864
sVrelevance
p1865
V0.741748
p1866
sa(dp1867
Vwebsite
p1868
Vhttp://www.bue.gov.ar/home/index.php?&lang=en
p1869
sVyago
p1870
Vhttp://yago-knowledge.org/resource/Buenos_Aires
p1871
sVtext
p1872
VBuenos Aires
p1873
sVdbpedia
p1874
Vhttp://dbpedia.org/resource/Buenos_Aires
p1875
sVfreebase
p1876
Vhttp://rdf.freebase.com/ns/m.01ly5m
p1877
sVrelevance
p1878
V0.718395
p1879
sVgeo
p1880
V-34.60333333333333 -58.38166666666667
p1881
sa(dp1882
Vwebsite
p1883
Vhttp://www.boeing.com/commercial
p1884
sVyago
p1885
Vhttp://yago-knowledge.org/resource/Boeing_Commercial_Airplanes
p1886
sVtext
p1887
VBoeing Commercial Airplanes
p1888
sVdbpedia
p1889
Vhttp://dbpedia.org/resource/Boeing_Commercial_Airplanes
p1890
sVfreebase
p1891
Vhttp://rdf.freebase.com/ns/m.03krzb
p1892
sVrelevance
p1893
V0.702795
p1894
sa(dp1895
Vrelevance
p1896
V0.690504
p1897
sVtext
p1898
VAirliner
p1899
sVopencyc
p1900
Vhttp://sw.opencyc.org/concept/Mx4r0Z1FHjDhQdiBpokGyffSPA
p1901
sVdbpedia
p1902
Vhttp://dbpedia.org/resource/Airliner
p1903
sVfreebase
p1904
Vhttp://rdf.freebase.com/ns/m.0dhz0
p1905
sa(dp1906
Vwebsite
p1907
Vhttp://www.ironmaiden.com/
p1908
sVyago
p1909
Vhttp://yago-knowledge.org/resource/Iron_Maiden
p1910
sVtext
p1911
VIron Maiden
p1912
sVopencyc
p1913
Vhttp://sw.opencyc.org/concept/Mx4rv_L_PJwpEbGdrcN5Y29ycA
p1914
sVdbpedia
p1915
Vhttp://dbpedia.org/resource/Iron_Maiden
p1916
sVfreebase
p1917
Vhttp://rdf.freebase.com/ns/m.014_xj
p1918
sVrelevance
p1919
V0.67552
p1920
sa(dp1921
Vwebsite
p1922
Vhttp://web.archive.org/*/www.nwa.com
p1923
sVyago
p1924
Vhttp://yago-knowledge.org/resource/Northwest_Airlines
p1925
sVtext
p1926
VNorthwest Airlines
p1927
sVopencyc
p1928
Vhttp://sw.opencyc.org/concept/Mx4rvd7xBJwpEbGdrcN5Y29ycA
p1929
sVdbpedia
p1930
Vhttp://dbpedia.org/resource/Northwest_Airlines
p1931
sVfreebase
p1932
Vhttp://rdf.freebase.com/ns/m.012lxn
p1933
sVrelevance
p1934
V0.654211
p1935
sasg629
(lp1936
(dp1937
Vrelevance
p1938
V0.99552
p1939
sVtext
p1940
VIron Maiden
p1941
sa(dp1942
Vrelevance
p1943
V0.985066
p1944
sVtext
p1945
Vground tug
p1946
sa(dp1947
Vrelevance
p1948
V0.933685
p1949
sVtext
p1950
Vground tug operators
p1951
sa(dp1952
Vrelevance
p1953
V0.913935
p1954
sVtext
p1955
VEd Force
p1956
sa(dp1957
Vrelevance
p1958
V0.878606
p1959
sVtext
p1960
VImage caption Vocalist
p1961
sa(dp1962
Vrelevance
p1963
V0.862804
p1964
sVtext
p1965
Vnew Ed Force
p1966
sa(dp1967
Vrelevance
p1968
V0.862404
p1969
sVtext
p1970
Vpilot Bruce Dickinson
p1971
sa(dp1972
Vrelevance
p1973
V0.696593
p1974
sVtext
p1975
Vsteering pin
p1976
sa(dp1977
Vrelevance
p1978
V0.687224
p1979
sVtext
p1980
Vtow truck
p1981
sa(dp1982
Vrelevance
p1983
V0.673294
p1984
sVtext
p1985
Vbeautiful plane
p1986
sa(dp1987
Vrelevance
p1988
V0.67278
p1989
sVtext
p1990
VBuenos Aires
p1991
sa(dp1992
Vrelevance
p1993
V0.671993
p1994
sVtext
p1995
Vprevious tours
p1996
sa(dp1997
Vrelevance
p1998
V0.664499
p1999
sVtext
p2000
Vnew engines
p2001
sa(dp2002
Vrelevance
p2003
V0.662319
p2004
sVtext
p2005
VStadium Nacional
p2006
sa(dp2007
Vrelevance
p2008
V0.661
p2009
sVtext
p2010
Vconcert schedule
p2011
sa(dp2012
Vrelevance
p2013
V0.655535
p2014
sVtext
p2015
Vexternal linking
p2016
sa(dp2017
Vrelevance
p2018
V0.65385
p2019
sVtext
p2020
Vexternal sites
p2021
sa(dp2022
Vrelevance
p2023
V0.652087
p2024
sVtext
p2025
Vlatest tour
p2026
sa(dp2027
Vrelevance
p2028
V0.650064
p2029
sVtext
p2030
Vhuge success
p2031
sa(dp2032
Vrelevance
p2033
V0.645923
p2034
sVtext
p2035
Vhigh note
p2036
sa(dp2037
Vrelevance
p2038
V0.635509
p2039
sVtext
p2040
Vband
p2041
sa(dp2042
Vrelevance
p2043
V0.537661
p2044
sVtext
p2045
VBoeing
p2046
sa(dp2047
Vrelevance
p2048
V0.517831
p2049
sVtext
p2050
VChile
p2051
sa(dp2052
Vrelevance
p2053
V0.476551
p2054
sVtext
p2055
VBBC
p2056
sa(dp2057
Vrelevance
p2058
V0.471274
p2059
sVtext
p2060
Vundercarriage
p2061
sa(dp2062
Vrelevance
p2063
V0.463438
p2064
sVtext
p2065
VCordoba
p2066
sa(dp2067
Vrelevance
p2068
V0.459792
p2069
sVtext
p2070
VSantiago
p2071
sa(dp2072
Vrelevance
p2073
V0.455136
p2074
sVtext
p2075
Vtons
p2076
sa(dp2077
Vrelevance
p2078
V0.451395
p2079
sVtext
p2080
Vwebsite
p2081
sa(dp2082
Vrelevance
p2083
V0.451251
p2084
sVtext
p2085
VAirport
p2086
sassg781
(lp2087
sg817
(dp2088
g819
I5
sg820
I8
sg821
I3
sg822
I1301
sg823
I109
ssa(dp2089
g5
Vhttp://www.bbc.co.uk/news/uk-england-london-35793887?ocid=socialflow_facebook&ns_mchannel=social&ns_campaign=bbcnews&ns_source=facebook
p2090
sg7
VTop Gear's Matt LeBlanc crashes London wedding
p2091
sg9
VTop Gear host Matt LeBlanc gatecrashed a wedding at St Paul's Cathedral while touring round the capital during filming.\u000aHe was joined by professional rally driver Ken Block as he spun around the city in a Ford Mustang.\u000aThe wedding party got a wave and a quick look in as they drove through the City of London.\u000aThe duo in Block's 845bhp 4WD Hoonicorn Mustang took a selfie on Tower Bridge.\u000aMatt LeBlanc also tweeted a picture of himself from Canary Wharf saying: "Canary wharf is nice."\u000aPaul Bradbury, head of retail at West Bromwich Albion Football Club, was in the capital with his wife for the weekend for a football match and caught the action at St Paul's Cathedral. \u000aMr Bradbury, from Newcastle-under-Lyme, Staffordshire, said: "It was very very loud and entertaining but everyone seemed to enjoy it. \u000a"Matt LeBlanc walked down and had a quick look of the route before he jumped in the car.\u000a"The car seemed to stall for a couple of minutes but they got going again and made a couple of takes with the wedding party on the steps."\u000aThe new series of BBC Two show is due to start in May.\u000a
p2092
sg11
Vhttps://s3.amazonaws.com/prod-cust-photo-posts-jfaikqealaka/3065-95d35338a8d1a0013674ef055e758b2f.jpg
p2093
sg13
(dp2094
g15
(dp2095
Vmixed
p2096
V1
sVscore
p2097
V0.598844
p2098
sVtype
p2099
Vpositive
p2100
ssg22
(lp2101
(dp2102
Vscore
p2103
V0.500125
p2104
sVlabel
p2105
V/art and entertainment/movies and tv/television
p2106
sa(dp2107
Vscore
p2108
V0.41866
p2109
sVlabel
p2110
V/automotive and vehicles/vehicle brands/ford
p2111
sa(dp2112
Vscore
p2113
V0.409912
p2114
sVlabel
p2115
V/real estate/apartments
p2116
sasg43
(lp2117
(dp2118
Vrelevance
p2119
V0.916262
p2120
sVcount
p2121
V6
sVtype
p2122
VPerson
p2123
sVdisambiguated
p2124
(dp2125
Vyago
p2126
Vhttp://yago-knowledge.org/resource/Matt_LeBlanc
p2127
sVname
p2128
VMatt LeBlanc
p2129
sVfreebase
p2130
Vhttp://rdf.freebase.com/ns/m.01rrd4
p2131
sVopencyc
p2132
Vhttp://sw.opencyc.org/concept/Mx4rvZutNZwpEbGdrcN5Y29ycA
p2133
sVsubType
p2134
(lp2135
VActor
p2136
aVAwardNominee
p2137
aVCelebrity
p2138
aVFilmActor
p2139
aVFilmProducer
p2140
aVTVActor
p2141
asVdbpedia
p2142
Vhttp://dbpedia.org/resource/Matt_LeBlanc
p2143
ssVtext
p2144
VMatt LeBlanc
p2145
sa(dp2146
Vrelevance
p2147
V0.475987
p2148
sVcount
p2149
V2
sVtype
p2150
VFacility
p2151
sVtext
p2152
VSt Paul's Cathedral
p2153
sa(dp2154
Vrelevance
p2155
V0.396689
p2156
sVcount
p2157
V3
sVtype
p2158
VPerson
p2159
sVtext
p2160
VKen Block
p2161
sa(dp2162
Vrelevance
p2163
V0.380038
p2164
sVcount
p2165
V2
sVtype
p2166
VFacility
p2167
sVdisambiguated
p2168
(dp2169
Vyago
p2170
Vhttp://yago-knowledge.org/resource/Canary_Wharf_tube_station
p2171
sVsubType
p2172
(lp2173
VLocation
p2174
aVBuilding
p2175
asVdbpedia
p2176
Vhttp://dbpedia.org/resource/Canary_Wharf_tube_station
p2177
sVname
p2178
VCanary Wharf tube station
p2179
sVfreebase
p2180
Vhttp://rdf.freebase.com/ns/m.01rz15
p2181
ssVtext
p2182
VCanary Wharf
p2183
sa(dp2184
Vrelevance
p2185
V0.364198
p2186
sVcount
p2187
V2
sVtype
p2188
VPerson
p2189
sVtext
p2190
VPaul Bradbury
p2191
sa(dp2192
Vrelevance
p2193
V0.346982
p2194
sVcount
p2195
V2
sVtype
p2196
VAutomobile
p2197
sVtext
p2198
VMustang
p2199
sa(dp2200
Vrelevance
p2201
V0.284629
p2202
sVcount
p2203
V1
sVtype
p2204
VFacility
p2205
sVtext
p2206
VWest Bromwich Albion Football Club
p2207
sa(dp2208
Vrelevance
p2209
V0.217065
p2210
sVcount
p2211
V1
sVtype
p2212
VCity
p2213
sVdisambiguated
p2214
(dp2215
Vwebsite
p2216
Vhttp://www.london.gov.uk/
p2217
sVyago
p2218
Vhttp://yago-knowledge.org/resource/London
p2219
sVname
p2220
VLondon
p2221
sVfreebase
p2222
Vhttp://rdf.freebase.com/ns/m.04jpl
p2223
sVsubType
p2224
(lp2225
VAdministrativeDivision
p2226
aVGovernmentalJurisdiction
p2227
aVOlympicHostCity
p2228
aVPlaceWithNeighborhoods
p2229
asVdbpedia
p2230
Vhttp://dbpedia.org/resource/London
p2231
sVgeo
p2232
V51.50805555555556 -0.12472222222222222
p2233
sVgeonames
p2234
Vhttp://sws.geonames.org/2643743/
p2235
ssVtext
p2236
VLondon
p2237
sa(dp2238
Vrelevance
p2239
V0.215347
p2240
sVcount
p2241
V1
sVtype
p2242
VFacility
p2243
sVtext
p2244
VTower Bridge
p2245
sa(dp2246
Vrelevance
p2247
V0.210289
p2248
sVcount
p2249
V1
sVtype
p2250
VCompany
p2251
sVdisambiguated
p2252
(dp2253
Vwebsite
p2254
Vhttp://www.bbc.co.uk
p2255
sVyago
p2256
Vhttp://yago-knowledge.org/resource/BBC
p2257
sVname
p2258
VBBC
p2259
sVfreebase
p2260
Vhttp://rdf.freebase.com/ns/m.0g5lhl7
p2261
sVopencyc
p2262
Vhttp://sw.opencyc.org/concept/Mx4rwMl8FpwpEbGdrcN5Y29ycA
p2263
sVsubType
p2264
(lp2265
VMusicalAlbum
p2266
aVBroadcast
p2267
aVPeriodicalPublisher
p2268
aVProductionCompany
p2269
aVTVNetwork
p2270
aVAwardNominee
p2271
aVAwardWinner
p2272
aVFilmDirector
p2273
aVFilmProducer
p2274
aVMusicalArtist
p2275
aVTVProducer
p2276
asVcrunchbase
p2277
Vhttp://www.crunchbase.com/company/bbc
p2278
sVdbpedia
p2279
Vhttp://dbpedia.org/resource/BBC
p2280
ssVtext
p2281
VBBC
p2282
sa(dp2283
Vrelevance
p2284
V0.207531
p2285
sVcount
p2286
V1
sVtype
p2287
VJobTitle
p2288
sVtext
p2289
Vhead of retail
p2290
sa(dp2291
Vrelevance
p2292
V0.198591
p2293
sVcount
p2294
V1
sVtype
p2295
VStateOrCounty
p2296
sVtext
p2297
VStaffordshire
p2298
sa(dp2299
Vrelevance
p2300
V0.19738
p2301
sVcount
p2302
V1
sVtype
p2303
VSport
p2304
sVtext
p2305
Vfootball
p2306
sasg525
(dp2307
Vanger
p2308
V0.059206
p2309
sVjoy
p2310
V0.020376
p2311
sVfear
p2312
V0.023851
p2313
sVsadness
p2314
V0.031814
p2315
sVdisgust
p2316
V0.195081
p2317
ssg537
(lp2318
(dp2319
Vwebsite
p2320
Vhttp://www.london.gov.uk/
p2321
sVyago
p2322
Vhttp://yago-knowledge.org/resource/London
p2323
sVgeonames
p2324
Vhttp://sws.geonames.org/2643743/
p2325
sVtext
p2326
VLondon
p2327
sVdbpedia
p2328
Vhttp://dbpedia.org/resource/London
p2329
sVfreebase
p2330
Vhttp://rdf.freebase.com/ns/m.04jpl
p2331
sVrelevance
p2332
V0.984322
p2333
sVgeo
p2334
V51.50805555555556 -0.12472222222222222
p2335
sa(dp2336
Vwebsite
p2337
Vhttp://www.cityoflondon.gov.uk
p2338
sVyago
p2339
Vhttp://yago-knowledge.org/resource/City_of_London
p2340
sVtext
p2341
VCity of London
p2342
sVdbpedia
p2343
Vhttp://dbpedia.org/resource/City_of_London
p2344
sVfreebase
p2345
Vhttp://rdf.freebase.com/ns/m.01_c4
p2346
sVrelevance
p2347
V0.960886
p2348
sVgeo
p2349
V51.5155 -0.0922
p2350
sa(dp2351
Vwebsite
p2352
Vhttp://www.wba.co.uk
p2353
sVyago
p2354
Vhttp://yago-knowledge.org/resource/West_Bromwich_Albion_F.C.
p2355
sVtext
p2356
VWest Bromwich Albion F.C.
p2357
sVdbpedia
p2358
Vhttp://dbpedia.org/resource/West_Bromwich_Albion_F.C.
p2359
sVfreebase
p2360
Vhttp://rdf.freebase.com/ns/m.085v7
p2361
sVrelevance
p2362
V0.926644
p2363
sa(dp2364
Vyago
p2365
Vhttp://yago-knowledge.org/resource/West_Bromwich
p2366
sVgeonames
p2367
Vhttp://sws.geonames.org/2634491/
p2368
sVtext
p2369
VWest Bromwich
p2370
sVdbpedia
p2371
Vhttp://dbpedia.org/resource/West_Bromwich
p2372
sVfreebase
p2373
Vhttp://rdf.freebase.com/ns/m.01n244
p2374
sVrelevance
p2375
V0.659295
p2376
sa(dp2377
Vrelevance
p2378
V0.652326
p2379
sVtext
p2380
VEnglish-language films
p2381
sVdbpedia
p2382
Vhttp://dbpedia.org/resource/English-language_films
p2383
sa(dp2384
Vyago
p2385
Vhttp://yago-knowledge.org/resource/London_Borough_of_Tower_Hamlets
p2386
sVgeonames
p2387
Vhttp://sws.geonames.org/2635594/
p2388
sVtext
p2389
VLondon Borough of Tower Hamlets
p2390
sVdbpedia
p2391
Vhttp://dbpedia.org/resource/London_Borough_of_Tower_Hamlets
p2392
sVfreebase
p2393
Vhttp://rdf.freebase.com/ns/m.0nlg4
p2394
sVrelevance
p2395
V0.602823
p2396
sVgeo
p2397
V51.516666666666666 -0.05
p2398
sa(dp2399
Vrelevance
p2400
V0.586755
p2401
sVtext
p2402
VStaffordshire
p2403
sVyago
p2404
Vhttp://yago-knowledge.org/resource/Staffordshire
p2405
sVdbpedia
p2406
Vhttp://dbpedia.org/resource/Staffordshire
p2407
sVfreebase
p2408
Vhttp://rdf.freebase.com/ns/m.0g14f
p2409
sa(dp2410
Vrelevance
p2411
V0.551371
p2412
sVtext
p2413
VMarriage
p2414
sVopencyc
p2415
Vhttp://sw.opencyc.org/concept/Mx4rm5AeosCGEdmAAAACs6hRjg
p2416
sVdbpedia
p2417
Vhttp://dbpedia.org/resource/Marriage
p2418
sVfreebase
p2419
Vhttp://rdf.freebase.com/ns/m.04ztj
p2420
sasg629
(lp2421
(dp2422
Vrelevance
p2423
V0.963693
p2424
sVtext
p2425
VMatt LeBlanc
p2426
sa(dp2427
Vrelevance
p2428
V0.832518
p2429
sVtext
p2430
Vhost Matt LeBlanc
p2431
sa(dp2432
Vrelevance
p2433
V0.714286
p2434
sVtext
p2435
Vcanary wharf
p2436
sa(dp2437
Vrelevance
p2438
V0.703385
p2439
sVtext
p2440
Vdriver Ken Block
p2441
sa(dp2442
Vrelevance
p2443
V0.68829
p2444
sVtext
p2445
VWest Bromwich Albion
p2446
sa(dp2447
Vrelevance
p2448
V0.685507
p2449
sVtext
p2450
VSt Paul
p2451
sa(dp2452
Vrelevance
p2453
V0.675896
p2454
sVtext
p2455
Vquick look
p2456
sa(dp2457
Vrelevance
p2458
V0.583363
p2459
sVtext
p2460
VPaul Bradbury
p2461
sa(dp2462
Vrelevance
p2463
V0.579571
p2464
sVtext
p2465
VMr Bradbury
p2466
sa(dp2467
Vrelevance
p2468
V0.573624
p2469
sVtext
p2470
VFord Mustang
p2471
sa(dp2472
Vrelevance
p2473
V0.568397
p2474
sVtext
p2475
VHoonicorn Mustang
p2476
sa(dp2477
Vrelevance
p2478
V0.551544
p2479
sVtext
p2480
VTower Bridge
p2481
sa(dp2482
Vrelevance
p2483
V0.54935
p2484
sVtext
p2485
Vwedding party
p2486
sa(dp2487
Vrelevance
p2488
V0.54336
p2489
sVtext
p2490
Vnew series
p2491
sa(dp2492
Vrelevance
p2493
V0.542235
p2494
sVtext
p2495
VFootball Club
p2496
sa(dp2497
Vrelevance
p2498
V0.54117
p2499
sVtext
p2500
Vfootball match
p2501
sa(dp2502
Vrelevance
p2503
V0.451838
p2504
sVtext
p2505
Vcouple
p2506
sa(dp2507
Vrelevance
p2508
V0.44885
p2509
sVtext
p2510
Vcapital
p2511
sa(dp2512
Vrelevance
p2513
V0.448443
p2514
sVtext
p2515
Vcity
p2516
sa(dp2517
Vrelevance
p2518
V0.44256
p2519
sVtext
p2520
Vcar
p2521
sa(dp2522
Vrelevance
p2523
V0.442515
p2524
sVtext
p2525
VNewcastle-under-Lyme
p2526
sa(dp2527
Vrelevance
p2528
V0.433466
p2529
sVtext
p2530
VCathedral
p2531
sa(dp2532
Vrelevance
p2533
V0.431393
p2534
sVtext
p2535
Vfilming
p2536
sa(dp2537
Vrelevance
p2538
V0.427683
p2539
sVtext
p2540
VStaffordshire
p2541
sa(dp2542
Vrelevance
p2543
V0.427464
p2544
sVtext
p2545
VGear
p2546
sa(dp2547
Vrelevance
p2548
V0.426772
p2549
sVtext
p2550
Vduo
p2551
sa(dp2552
Vrelevance
p2553
V0.426645
p2554
sVtext
p2555
Vrally
p2556
sa(dp2557
Vrelevance
p2558
V0.425945
p2559
sVtext
p2560
Vwife
p2561
sa(dp2562
Vrelevance
p2563
V0.425752
p2564
sVtext
p2565
Vwave
p2566
sa(dp2567
Vrelevance
p2568
V0.424866
p2569
sVtext
p2570
VLondon
p2571
sassg781
(lp2572
sg817
(dp2573
g819
I14
sg820
I19
sg821
I71
sg822
I2592
sg823
I4
ssa(dp2574
g5
Vhttp://www.bbc.co.uk/news/disability-35762887?ocid=socialflow_facebook&ns_mchannel=social&ns_campaign=bbcnews&ns_source=facebook
p2575
sg7
V'Pretty Cripples' and the people turned on by disability
p2576
sg9
VAfter posting a photo of herself online, disabled BBC Three presenter Emily Yates was shocked to receive a message saying "pretty cripple". It led her to investigate the secret world of "devotees" - those who are sexually aroused by disabled people and their struggles. \u000aIt was 2011 and I was living in Melbourne, Australia, when I posted a photo of myself in my wheelchair on Facebook ahead of the university's annual ball.  \u000aLater I saw a few friendly comments had been added from people wishing me a great evening but below that I was shocked to see the words "pretty cripple" posted by a friend in New York. \u000aI was hurt that compliments and negative terms could go hand-in-hand in this way, but was even more offended when I later discovered that, to some, it was the biggest gesture of admiration he could have given me. \u000aAfter an angry Facebook rant, I found myself being introduced to a community of people who are sexually aroused, and attracted to, disability as friends pointed me towards some websites about people known as devotees.\u000aThe websites would become the doorway to discovering some pretty dark stuff but, surprisingly, I found it strangely refreshing at times.\u000aI'm ashamed to say that I often find myself almost apologising for my disability. I have cerebral palsy and, when talking to guys online, I make sure they know I'm a wheelchair user so they have a get-out clause before choosing to meet me.\u000aIn a world that constantly tells us anything out of the realms of "normal" is undesirable, I'd be lying if I said I wasn't impressed by the idea that there are people out there who would happily love and accept every little bit of me, especially the bits that I've always considered flawed.  \u000aBut, as I started to come face to face with people in the devotee community, I felt wary. \u000aOne of the first I met was Gray, a husband and father in the USA, who wanted to remain anonymous as even his wife doesn't know of his interest.\u000aHe seemed both confident and lonely - accepting of his "devness" as he calls it, but equally trapped by it.  \u000aHe told me he thought my legs were "very nice and sexy" and sees leg-braces or wheelchairs in the same way others see party dresses. For him, relationships with disabled women can offer more intimacy than those with able-bodied women.\u000aGray's interest in disabled women first emerged at school when a girl with a very short leg and one arm entered his classroom, he says he fell immediately in love: "To me she was obviously the most gorgeous woman in the whole school district."\u000aAs I spoke to him, though, I wondered if his attraction was more about vulnerability and power - things which I didn't want others to consider when they look at me. \u000aIt was through meeting Gray that I discovered some devs are solely attracted to the disabled body, and cannot find sexual gratification with able-bodied partners. \u000aRuth Madison, an American author who writes fiction about a teenage devotee and her love for a paraplegic man, is open about her devoteeism, which is perhaps why I liked her so much.\u000aFind out more\u000aYou can watch Emily Yates's documentary, Meet The Devotees on the BBC Three website and BBC iPlayer \u000aListen: Tune into the BBC Ouch talk-show where Emily joins in on the debate about devotees \u000aShe says she was a toddler when she first realised her desire for disabled people but knew she "couldn't let anyone know". This led to years of intense secrecy.\u000aWhen I met Madison she proudly showed me her desk chair - it's a second-hand wheelchair - and said her feelings are now so intense it impacts her sex life.\u000aPeople she gets involved with have to be noticeably disabled. One boyfriend she had was paralysed but only had a damaged spinal cord rather than a completely severed one and so had a certain degree of mobility. "He didn't always use equipment," she says, "and when we were in bed together I couldn't really see his disability.\u000a"That would sometimes hamper things for me," she says, and admits she would have to look at his stick or wheelchair to become aroused. \u000aMeeting Madison and seeing her open and honest attitude empowered me.\u000aDevoteeism finally had a face and a name which invited me into a home, was transparent and much more than an online presence with a disability fetish.  It helped make me realise devotees are people too. \u000aBut I also came into contact with a section of the devotee community called the "bad devs" - those who enjoy watching someone struggle. \u000aSimply put, this particular fetish focuses on the difficulties someone with a disability might face in their everyday life, such as using stairs. \u000aTo find out more about this for myself I decided to make my own "devotee porn" for bad devs. \u000aStrangely, it's not like the porn you might be thinking of. Imagine the most mundane everyday task acted out by a disabled person. Not worth watching, right? Some devotees couldn't disagree more.\u000aPutting a call out on social media I asked what my audience wanted to see from me. Their requests came thick and fast. Some said they would love to see me transfer from my bed to my wheelchair with a clear view of my feet and legs and someone else added they hoped I would have a few muscle spasms too. They were very upfront about what they like. \u000aI made a short film of me transferring from my wheelchair to my beloved car, but I almost cried beforehand because I felt so objectified.\u000aIf it was a performance and I could look really sexy that could be really fun, but actually what they're asking me to do is something I do every day and have difficulty with.\u000aWhile wandering through this world of devoteeism I have come across examples of troubling empowerment and exploitation but, at the same time, I've learnt something important and positive.\u000aI met many devotees along the way and some were really genuine, I understood them and liked them. \u000aEssentially what they were saying was, "Why should we exclude anybody when disabled people can be just as beautiful?" But I think there's also a problem when you fetishise something, that it can hamper you from having feelings for the full person.\u000aAm I here to judge devoteeism? Of course not. In fact, I believe that putting this otherwise hidden subject out in the open will help both devotees and disabled people to find what they are looking for, or what doesn't interest them.\u000aDo I want to ensure that we all have the knowledge and confidence to make our own sexual decisions, weighing up pros and cons, regardless of ability? Absolutely, and I hope my investigation is just the start of encouraging that conversation to flourish.\u000aFollow BBC Ouch on Twitter  and Facebook , and subscribe to the weekly podcast . \u000a
p2577
sg11
Vhttp://ichef-1.bbci.co.uk/news/1024/cpsprodpb/6590/production/_88700062_p03lh47m.jpg
p2578
sg13
(dp2579
g15
(dp2580
Vmixed
p2581
V1
sVscore
p2582
V-0.129494
p2583
sVtype
p2584
Vnegative
p2585
ssg22
(lp2586
(dp2587
Vscore
p2588
V0.629772
p2589
sVlabel
p2590
V/religion and spirituality/hinduism
p2591
sa(dp2592
Vconfident
p2593
Vno
p2594
sVscore
p2595
V0.363104
p2596
sVlabel
p2597
V/health and fitness/disorders/mental disorder/panic and anxiety
p2598
sa(dp2599
Vconfident
p2600
Vno
p2601
sVscore
p2602
V0.34429
p2603
sVlabel
p2604
V/law, govt and politics/government
p2605
sasg43
(lp2606
(dp2607
Vrelevance
p2608
V0.844966
p2609
sVcount
p2610
V5
sVtype
p2611
VCompany
p2612
sVdisambiguated
p2613
(dp2614
Vwebsite
p2615
Vhttp://www.bbc.co.uk
p2616
sVyago
p2617
Vhttp://yago-knowledge.org/resource/BBC
p2618
sVname
p2619
VBBC
p2620
sVfreebase
p2621
Vhttp://rdf.freebase.com/ns/m.0g5lhl7
p2622
sVopencyc
p2623
Vhttp://sw.opencyc.org/concept/Mx4rwMl8FpwpEbGdrcN5Y29ycA
p2624
sVsubType
p2625
(lp2626
VMusicalAlbum
p2627
aVBroadcast
p2628
aVPeriodicalPublisher
p2629
aVProductionCompany
p2630
aVTVNetwork
p2631
aVAwardNominee
p2632
aVAwardWinner
p2633
aVFilmDirector
p2634
aVFilmProducer
p2635
aVMusicalArtist
p2636
aVTVProducer
p2637
asVcrunchbase
p2638
Vhttp://www.crunchbase.com/company/bbc
p2639
sVdbpedia
p2640
Vhttp://dbpedia.org/resource/BBC
p2641
ssVtext
p2642
VBBC
p2643
sa(dp2644
Vrelevance
p2645
V0.773383
p2646
sVcount
p2647
V3
sVtype
p2648
VCompany
p2649
sVdisambiguated
p2650
(dp2651
Vwebsite
p2652
Vhttp://www.facebook.com/
p2653
sVyago
p2654
Vhttp://yago-knowledge.org/resource/Facebook
p2655
sVname
p2656
VFacebook
p2657
sVfreebase
p2658
Vhttp://rdf.freebase.com/ns/m.02y1vz
p2659
sVsubType
p2660
(lp2661
VWebsite
p2662
aVVentureFundedCompany
p2663
asVcrunchbase
p2664
Vhttp://www.crunchbase.com/company/facebook
p2665
sVdbpedia
p2666
Vhttp://dbpedia.org/resource/Facebook
p2667
ssVtext
p2668
VFacebook
p2669
sa(dp2670
Vrelevance
p2671
V0.705475
p2672
sVcount
p2673
V3
sVtype
p2674
VPerson
p2675
sVtext
p2676
VRuth Madison
p2677
sa(dp2678
Vrelevance
p2679
V0.680643
p2680
sVcount
p2681
V3
sVtype
p2682
VPerson
p2683
sVtext
p2684
VEmily Yates
p2685
sa(dp2686
Vrelevance
p2687
V0.628703
p2688
sVcount
p2689
V3
sVtype
p2690
VPerson
p2691
sVtext
p2692
VGray
p2693
sa(dp2694
Vrelevance
p2695
V0.49287
p2696
sVcount
p2697
V1
sVtype
p2698
VCity
p2699
sVdisambiguated
p2700
(dp2701
Vwebsite
p2702
Vhttp://www.emelbourne.net.au/
p2703
sVyago
p2704
Vhttp://yago-knowledge.org/resource/Melbourne
p2705
sVname
p2706
VMelbourne
p2707
sVfreebase
p2708
Vhttp://rdf.freebase.com/ns/m.0chgzm
p2709
sVsubType
p2710
(lp2711
VEnglishCivilParish
p2712
aVMilitaryPost
p2713
aVOlympicHostCity
p2714
asVdbpedia
p2715
Vhttp://dbpedia.org/resource/Melbourne
p2716
sVgeo
p2717
V-37.81361111111111 144.96305555555554
p2718
sVgeonames
p2719
Vhttp://sws.geonames.org/2158177/
p2720
ssVtext
p2721
VMelbourne
p2722
sa(dp2723
Vrelevance
p2724
V0.465494
p2725
sVcount
p2726
V1
sVtype
p2727
VHealthCondition
p2728
sVdisambiguated
p2729
(dp2730
VsubType
p2731
(lp2732
VSymptom
p2733
asVdbpedia
p2734
Vhttp://dbpedia.org/resource/Spasm
p2735
sVname
p2736
VSpasm
p2737
sVfreebase
p2738
Vhttp://rdf.freebase.com/ns/m.04zjnsf
p2739
ssVtext
p2740
Vmuscle spasms
p2741
sa(dp2742
Vrelevance
p2743
V0.465417
p2744
sVcount
p2745
V1
sVtype
p2746
VCity
p2747
sVtext
p2748
VNew York
p2749
sa(dp2750
Vrelevance
p2751
V0.438152
p2752
sVcount
p2753
V1
sVtype
p2754
VPerson
p2755
sVtext
p2756
VDevoteeism
p2757
sa(dp2758
Vrelevance
p2759
V0.436522
p2760
sVcount
p2761
V1
sVtype
p2762
VCountry
p2763
sVtext
p2764
VAustralia
p2765
sa(dp2766
Vrelevance
p2767
V0.428186
p2768
sVcount
p2769
V1
sVtype
p2770
VCountry
p2771
sVdisambiguated
p2772
(dp2773
Vwebsite
p2774
Vhttp://www.usa.gov/
p2775
sVyago
p2776
Vhttp://yago-knowledge.org/resource/United_States
p2777
sVname
p2778
VUnited States
p2779
sVfreebase
p2780
Vhttp://rdf.freebase.com/ns/m.09c7w0
p2781
sVopencyc
p2782
Vhttp://sw.opencyc.org/concept/Mx4rvVikKpwpEbGdrcN5Y29ycA
p2783
sVsubType
p2784
(lp2785
VLocation
p2786
aVRegion
p2787
aVAdministrativeDivision
p2788
aVGovernmentalJurisdiction
p2789
aVFilmEditor
p2790
asVdbpedia
p2791
Vhttp://dbpedia.org/resource/United_States
p2792
sVciaFactbook
p2793
Vhttp://www4.wiwiss.fu-berlin.de/factbook/resource/United_States
p2794
ssVtext
p2795
VUSA
p2796
sa(dp2797
Vrelevance
p2798
V0.420169
p2799
sVcount
p2800
V1
sVtype
p2801
VFieldTerminology
p2802
sVtext
p2803
Vspinal cord
p2804
sa(dp2805
Vrelevance
p2806
V0.390557
p2807
sVcount
p2808
V1
sVtype
p2809
VFieldTerminology
p2810
sVtext
p2811
Vsocial media
p2812
sa(dp2813
Vrelevance
p2814
V0.366918
p2815
sVcount
p2816
V1
sVtype
p2817
VCompany
p2818
sVdisambiguated
p2819
(dp2820
Vwebsite
p2821
Vhttp://twitter.com/
p2822
sVname
p2823
VTwitter
p2824
sVfreebase
p2825
Vhttp://rdf.freebase.com/ns/m.0289n8t
p2826
sVsubType
p2827
(lp2828
VWebsite
p2829
aVVentureFundedCompany
p2830
asVcrunchbase
p2831
Vhttp://www.crunchbase.com/company/twitter
p2832
sVdbpedia
p2833
Vhttp://dbpedia.org/resource/Twitter
p2834
ssVtext
p2835
VTwitter
p2836
sasg525
(dp2837
Vanger
p2838
V0.128516
p2839
sVjoy
p2840
V5e-05
p2841
sVfear
p2842
V0.005049
p2843
sVsadness
p2844
V0.018086
p2845
sVdisgust
p2846
V0.26456
p2847
ssg537
(lp2848
(dp2849
Vrelevance
p2850
V0.954526
p2851
sVtext
p2852
VDisability
p2853
sVopencyc
p2854
Vhttp://sw.opencyc.org/concept/Mx4rvc0ngZwpEbGdrcN5Y29ycA
p2855
sVdbpedia
p2856
Vhttp://dbpedia.org/resource/Disability
p2857
sVfreebase
p2858
Vhttp://rdf.freebase.com/ns/m.0fl5x
p2859
sa(dp2860
Vrelevance
p2861
V0.811504
p2862
sVtext
p2863
VWheelchair
p2864
sVopencyc
p2865
Vhttp://sw.opencyc.org/concept/Mx4rvVjwFpwpEbGdrcN5Y29ycA
p2866
sVdbpedia
p2867
Vhttp://dbpedia.org/resource/Wheelchair
p2868
sVfreebase
p2869
Vhttp://rdf.freebase.com/ns/m.0qmmr
p2870
sa(dp2871
Vwebsite
p2872
Vhttp://www.bbc.co.uk
p2873
sVyago
p2874
Vhttp://yago-knowledge.org/resource/BBC
p2875
sVtext
p2876
VBBC
p2877
sVopencyc
p2878
Vhttp://sw.opencyc.org/concept/Mx4rwMl8FpwpEbGdrcN5Y29ycA
p2879
sVcrunchbase
p2880
Vhttp://www.crunchbase.com/company/bbc
p2881
sVdbpedia
p2882
Vhttp://dbpedia.org/resource/BBC
p2883
sVfreebase
p2884
Vhttp://rdf.freebase.com/ns/m.0g5lhl7
p2885
sVrelevance
p2886
V0.641395
p2887
sa(dp2888
Vrelevance
p2889
V0.580704
p2890
sVtext
p2891
VDisability rights movement
p2892
sVyago
p2893
Vhttp://yago-knowledge.org/resource/Disability_rights_movement
p2894
sVdbpedia
p2895
Vhttp://dbpedia.org/resource/Disability_rights_movement
p2896
sVfreebase
p2897
Vhttp://rdf.freebase.com/ns/m.02890q
p2898
sa(dp2899
Vrelevance
p2900
V0.522619
p2901
sVtext
p2902
VSexual intercourse
p2903
sVdbpedia
p2904
Vhttp://dbpedia.org/resource/Sexual_intercourse
p2905
sVfreebase
p2906
Vhttp://rdf.freebase.com/ns/m.06vp9
p2907
sa(dp2908
Vrelevance
p2909
V0.472566
p2910
sVtext
p2911
VOrgasm
p2912
sVopencyc
p2913
Vhttp://sw.opencyc.org/concept/Mx4rwTl5npwpEbGdrcN5Y29ycA
p2914
sVdbpedia
p2915
Vhttp://dbpedia.org/resource/Orgasm
p2916
sVfreebase
p2917
Vhttp://rdf.freebase.com/ns/m.05n5y
p2918
sa(dp2919
Vrelevance
p2920
V0.452634
p2921
sVtext
p2922
VSexual arousal
p2923
sVopencyc
p2924
Vhttp://sw.opencyc.org/concept/Mx4rwMMe4ZwpEbGdrcN5Y29ycA
p2925
sVdbpedia
p2926
Vhttp://dbpedia.org/resource/Sexual_arousal
p2927
sVfreebase
p2928
Vhttp://rdf.freebase.com/ns/m.015053
p2929
sa(dp2930
Vrelevance
p2931
V0.428166
p2932
sVtext
p2933
VHuman sexuality
p2934
sVdbpedia
p2935
Vhttp://dbpedia.org/resource/Human_sexuality
p2936
sVfreebase
p2937
Vhttp://rdf.freebase.com/ns/m.03ngg
p2938
sasg629
(lp2939
(dp2940
Vrelevance
p2941
V0.995543
p2942
sVtext
p2943
Vdisabled people
p2944
sa(dp2945
Vrelevance
p2946
V0.83991
p2947
sVtext
p2948
Vdevotees
p2949
sa(dp2950
Vrelevance
p2951
V0.796779
p2952
sVtext
p2953
Vdisabled women
p2954
sa(dp2955
Vrelevance
p2956
V0.788459
p2957
sVtext
p2958
VEmily Yates
p2959
sa(dp2960
Vrelevance
p2961
V0.786553
p2962
sVtext
p2963
Vdevotee community
p2964
sa(dp2965
Vrelevance
p2966
V0.786535
p2967
sVtext
p2968
Vangry Facebook rant
p2969
sa(dp2970
Vrelevance
p2971
V0.780519
p2972
sVtext
p2973
Vpresenter Emily Yates
p2974
sa(dp2975
Vrelevance
p2976
V0.765677
p2977
sVtext
p2978
VBBC Ouch
p2979
sa(dp2980
Vrelevance
p2981
V0.7642
p2982
sVtext
p2983
VBBC Ouch talk-show
p2984
sa(dp2985
Vrelevance
p2986
V0.763726
p2987
sVtext
p2988
Vpretty dark stuff
p2989
sa(dp2990
Vrelevance
p2991
V0.741259
p2992
sVtext
p2993
Vbad devs
p2994
sa(dp2995
Vrelevance
p2996
V0.737543
p2997
sVtext
p2998
Vparticular fetish focuses
p2999
sa(dp3000
Vrelevance
p3001
V0.721367
p3002
sVtext
p3003
Vmundane everyday task
p3004
sa(dp3005
Vrelevance
p3006
V0.711093
p3007
sVtext
p3008
Vdisabled BBC
p3009
sa(dp3010
Vrelevance
p3011
V0.703225
p3012
sVtext
p3013
Vwheelchair
p3014
sa(dp3015
Vrelevance
p3016
V0.699245
p3017
sVtext
p3018
VMeet The Devotees
p3019
sa(dp3020
Vrelevance
p3021
V0.68403
p3022
sVtext
p3023
Vdisabled body
p3024
sa(dp3025
Vrelevance
p3026
V0.667582
p3027
sVtext
p3028
Vwheelchair user
p3029
sa(dp3030
Vrelevance
p3031
V0.661657
p3032
sVtext
p3033
Vdisabled person
p3034
sa(dp3035
Vrelevance
p3036
V0.660895
p3037
sVtext
p3038
Vteenage devotee
p3039
sa(dp3040
Vrelevance
p3041
V0.658954
p3042
sVtext
p3043
Vpretty cripple
p3044
sa(dp3045
Vrelevance
p3046
V0.656625
p3047
sVtext
p3048
Vsecond-hand wheelchair
p3049
sa(dp3050
Vrelevance
p3051
V0.654625
p3052
sVtext
p3053
Vfriendly comments
p3054
sa(dp3055
Vrelevance
p3056
V0.654235
p3057
sVtext
p3058
VNew York
p3059
sa(dp3060
Vrelevance
p3061
V0.652756
p3062
sVtext
p3063
Vdevotee porn
p3064
sa(dp3065
Vrelevance
p3066
V0.650156
p3067
sVtext
p3068
Vbiggest gesture
p3069
sa(dp3070
Vrelevance
p3071
V0.649222
p3072
sVtext
p3073
Vgreat evening
p3074
sa(dp3075
Vrelevance
p3076
V0.648005
p3077
sVtext
p3078
Vnegative terms
p3079
sa(dp3080
Vrelevance
p3081
V0.647098
p3082
sVtext
p3083
Vable-bodied partners
p3084
sa(dp3085
Vrelevance
p3086
V0.646612
p3087
sVtext
p3088
Vable-bodied women
p3089
sassg781
(lp3090
(dp3091
VfaceRectangle
p3092
(dp3093
Vwidth
p3094
I99
sVtop
p3095
I46
sVleft
p3096
I415
sVheight
p3097
I99
ssVscores
p3098
(dp3099
Vsadness
p3100
F0.0032793122800000001
sVneutral
p3101
F0.00344186556
sVcontempt
p3102
F0.0001184735
sVdisgust
p3103
F0.00134745543
sVanger
p3104
F2.3004797199999999e-05
sVsurprise
p3105
F0.0006213538
sVfear
p3106
F0.0038619185800000001
sVhappiness
p3107
F0.98730660000000003
ssasg817
(dp3108
g819
I6
sg820
I28
sg821
I10
sg822
I886
sg823
I4
ssa(dp3109
g5
Vhttp://www.bbc.co.uk/news/world-europe-35794553?ocid=socialflow_facebook&ns_mchannel=social&ns_campaign=bbcnews&ns_source=facebook
p3110
sg7
VParis attacks: Girls quizzed over 'Bataclan-style plot'
p3111
sg9
VFrench authorities have opened a criminal investigation into two teenage girls suspected of planning an attack similar to the one on the Bataclan concert hall in Paris in November.\u000aThe girls, aged 15 and 17, had been exchanging messages on Facebook about the planned assault, police said.\u000aBoth girls appeared before an anti-terrorism judge on Friday. \u000aProsecutors said the alleged plan had been at an early stage and that neither weapons nor explosives had been found.\u000aFrance remains on high alert following the Paris attacks in which 130 people died, including 90 at the Bataclan.\u000aThe Paris prosecutor's office said the 15-year-old would remain in custody while the 17-year-old would be released under judicial supervision.\u000aThe girls, who have not been named, were arrested on Wednesday by counter-terrorism agents. \u000aThey are suspected of criminal conspiracy in connection with a terrorist undertaking, prosecutors said. \u000aTwo other girls have been questioned by police and released.\u000aThree gunmen wearing suicide vests stormed the Bataclan concert hall on 13 November 2015 during a rock concert. All three were later killed by security forces.\u000aOther gunmen attacked cafes, restaurants and the Stade de France stadium.\u000aFrance remains under a state of emergency following the attacks.\u000a
p3112
sg11
Vhttps://s3.amazonaws.com/prod-cust-photo-posts-jfaikqealaka/3065-3a72435b12d9a6ed33f027bf58d4d1b5.jpg
p3113
sg13
(dp3114
g15
(dp3115
Vmixed
p3116
V1
sVscore
p3117
V-0.513899
p3118
sVtype
p3119
Vnegative
p3120
ssg22
(lp3121
(dp3122
Vscore
p3123
V0.406682
p3124
sVlabel
p3125
V/law, govt and politics/law enforcement/police
p3126
sa(dp3127
Vconfident
p3128
Vno
p3129
sVscore
p3130
V0.339146
p3131
sVlabel
p3132
V/art and entertainment/shows and events/concert
p3133
sa(dp3134
Vconfident
p3135
Vno
p3136
sVscore
p3137
V0.312117
p3138
sVlabel
p3139
V/travel/tourist destinations/france
p3140
sasg43
(lp3141
(dp3142
Vrelevance
p3143
V0.888726
p3144
sVcount
p3145
V2
sVtype
p3146
VFacility
p3147
sVtext
p3148
VBataclan concert hall
p3149
sa(dp3150
Vrelevance
p3151
V0.870096
p3152
sVcount
p3153
V3
sVtype
p3154
VCity
p3155
sVdisambiguated
p3156
(dp3157
Vwebsite
p3158
Vhttp://www.paris.fr
p3159
sVyago
p3160
Vhttp://yago-knowledge.org/resource/Paris
p3161
sVgeonames
p3162
Vhttp://sws.geonames.org/2988507/
p3163
sVfreebase
p3164
Vhttp://rdf.freebase.com/ns/m.05qtj
p3165
sVsubType
p3166
(lp3167
VAdministrativeDivision
p3168
aVFrenchDepartment
p3169
aVGovernmentalJurisdiction
p3170
aVOlympicBiddingCity
p3171
aVOlympicHostCity
p3172
aVPlaceWithNeighborhoods
p3173
asVdbpedia
p3174
Vhttp://dbpedia.org/resource/Paris
p3175
sVname
p3176
VParis
p3177
ssVtext
p3178
VParis
p3179
sa(dp3180
Vrelevance
p3181
V0.676645
p3182
sVcount
p3183
V2
sVtype
p3184
VCountry
p3185
sVdisambiguated
p3186
(dp3187
Vwebsite
p3188
Vhttp://www.service-public.fr/etranger/english.html
p3189
sVyago
p3190
Vhttp://yago-knowledge.org/resource/France
p3191
sVname
p3192
VFrance
p3193
sVfreebase
p3194
Vhttp://rdf.freebase.com/ns/m.0f8l9c
p3195
sVopencyc
p3196
Vhttp://sw.opencyc.org/concept/Mx4rvVj6EJwpEbGdrcN5Y29ycA
p3197
sVsubType
p3198
(lp3199
VLocation
p3200
aVRegion
p3201
aVAdministrativeDivision
p3202
aVGovernmentalJurisdiction
p3203
aVFilmDirector
p3204
asVdbpedia
p3205
Vhttp://dbpedia.org/resource/France
p3206
sVciaFactbook
p3207
Vhttp://www4.wiwiss.fu-berlin.de/factbook/resource/France
p3208
sVgeo
p3209
V47.0 2.0
p3210
ssVtext
p3211
VFrance
p3212
sa(dp3213
Vrelevance
p3214
V0.619918
p3215
sVcount
p3216
V1
sVtype
p3217
VFacility
p3218
sVtext
p3219
VStade de France stadium
p3220
sa(dp3221
Vrelevance
p3222
V0.496286
p3223
sVcount
p3224
V1
sVtype
p3225
VCompany
p3226
sVdisambiguated
p3227
(dp3228
Vwebsite
p3229
Vhttp://www.facebook.com/
p3230
sVyago
p3231
Vhttp://yago-knowledge.org/resource/Facebook
p3232
sVname
p3233
VFacebook
p3234
sVfreebase
p3235
Vhttp://rdf.freebase.com/ns/m.02y1vz
p3236
sVsubType
p3237
(lp3238
VWebsite
p3239
aVVentureFundedCompany
p3240
asVcrunchbase
p3241
Vhttp://www.crunchbase.com/company/facebook
p3242
sVdbpedia
p3243
Vhttp://dbpedia.org/resource/Facebook
p3244
ssVtext
p3245
VFacebook
p3246
sa(dp3247
Vrelevance
p3248
V0.431531
p3249
sVcount
p3250
V1
sVtype
p3251
VCrime
p3252
sVtext
p3253
Vassault
p3254
sa(dp3255
Vrelevance
p3256
V0.395281
p3257
sVcount
p3258
V1
sVtype
p3259
VCity
p3260
sVtext
p3261
VBataclan
p3262
sa(dp3263
Vrelevance
p3264
V0.387195
p3265
sVcount
p3266
V1
sVtype
p3267
VJobTitle
p3268
sVtext
p3269
Vprosecutor
p3270
sa(dp3271
Vrelevance
p3272
V0.387195
p3273
sVcount
p3274
V1
sVtype
p3275
VQuantity
p3276
sVtext
p3277
V15-year
p3278
sa(dp3279
Vrelevance
p3280
V0.387195
p3281
sVcount
p3282
V1
sVtype
p3283
VQuantity
p3284
sVtext
p3285
V17-year
p3286
sasg525
(dp3287
Vanger
p3288
V0.073326
p3289
sVjoy
p3290
V0.000271
p3291
sVfear
p3292
V0.278592
p3293
sVsadness
p3294
V0.009665
p3295
sVdisgust
p3296
V0.3075
p3297
ssg537
(lp3298
(dp3299
Vrelevance
p3300
V0.957916
p3301
sVtext
p3302
VCriminal law
p3303
sVopencyc
p3304
Vhttp://sw.opencyc.org/concept/Mx4r_H7Z9rvWEdmAAAACs6hRjg
p3305
sVdbpedia
p3306
Vhttp://dbpedia.org/resource/Criminal_law
p3307
sVfreebase
p3308
Vhttp://rdf.freebase.com/ns/m.01n5w
p3309
sa(dp3310
Vyago
p3311
Vhttp://yago-knowledge.org/resource/Stade_de_France
p3312
sVtext
p3313
VStade de France
p3314
sVdbpedia
p3315
Vhttp://dbpedia.org/resource/Stade_de_France
p3316
sVfreebase
p3317
Vhttp://rdf.freebase.com/ns/m.038xg3
p3318
sVrelevance
p3319
V0.954422
p3320
sVgeo
p3321
V48.92444444444445 2.36
p3322
sa(dp3323
Vrelevance
p3324
V0.915022
p3325
sVtext
p3326
VJudge
p3327
sVopencyc
p3328
Vhttp://sw.opencyc.org/concept/Mx4rvVi68pwpEbGdrcN5Y29ycA
p3329
sVdbpedia
p3330
Vhttp://dbpedia.org/resource/Judge
p3331
sVfreebase
p3332
Vhttp://rdf.freebase.com/ns/m.0c5lg
p3333
sa(dp3334
Vrelevance
p3335
V0.898796
p3336
sVtext
p3337
VAttack
p3338
sVdbpedia
p3339
Vhttp://dbpedia.org/resource/Attack
p3340
sa(dp3341
Vrelevance
p3342
V0.838076
p3343
sVtext
p3344
VAttack!
p3345
sVdbpedia
p3346
Vhttp://dbpedia.org/resource/Attack!_(board_game)
p3347
sVfreebase
p3348
Vhttp://rdf.freebase.com/ns/m.05p6q8
p3349
sa(dp3350
Vrelevance
p3351
V0.792444
p3352
sVtext
p3353
VTerrorism
p3354
sVopencyc
p3355
Vhttp://sw.opencyc.org/concept/Mx4rvViTlZwpEbGdrcN5Y29ycA
p3356
sVdbpedia
p3357
Vhttp://dbpedia.org/resource/Terrorism
p3358
sVfreebase
p3359
Vhttp://rdf.freebase.com/ns/m.07jq_
p3360
sa(dp3361
Vrelevance
p3362
V0.759892
p3363
sVtext
p3364
V1998 FIFA World Cup
p3365
sVyago
p3366
Vhttp://yago-knowledge.org/resource/1998_FIFA_World_Cup
p3367
sVdbpedia
p3368
Vhttp://dbpedia.org/resource/1998_FIFA_World_Cup
p3369
sVfreebase
p3370
Vhttp://rdf.freebase.com/ns/m.0x_x3
p3371
sa(dp3372
Vrelevance
p3373
V0.747929
p3374
sVtext
p3375
VProsecutor
p3376
sVopencyc
p3377
Vhttp://sw.opencyc.org/concept/Mx4rlL5kmLrMEdaAAAACs6Mw3A
p3378
sVdbpedia
p3379
Vhttp://dbpedia.org/resource/Prosecutor
p3380
sVfreebase
p3381
Vhttp://rdf.freebase.com/ns/m.028w3j
p3382
sasg629
(lp3383
(dp3384
Vrelevance
p3385
V0.925444
p3386
sVtext
p3387
VBataclan concert hall
p3388
sa(dp3389
Vrelevance
p3390
V0.616748
p3391
sVtext
p3392
Vanti-terrorism judge
p3393
sa(dp3394
Vrelevance
p3395
V0.616199
p3396
sVtext
p3397
VFrench authorities
p3398
sa(dp3399
Vrelevance
p3400
V0.61271
p3401
sVtext
p3402
Vplanned assault
p3403
sa(dp3404
Vrelevance
p3405
V0.607405
p3406
sVtext
p3407
Vteenage girls
p3408
sa(dp3409
Vrelevance
p3410
V0.602303
p3411
sVtext
p3412
Vcounter-terrorism agents
p3413
sa(dp3414
Vrelevance
p3415
V0.601145
p3416
sVtext
p3417
Vcriminal investigation
p3418
sa(dp3419
Vrelevance
p3420
V0.594603
p3421
sVtext
p3422
Vterrorist undertaking
p3423
sa(dp3424
Vrelevance
p3425
V0.589547
p3426
sVtext
p3427
Vjudicial supervision
p3428
sa(dp3429
Vrelevance
p3430
V0.589495
p3431
sVtext
p3432
Vhigh alert
p3433
sa(dp3434
Vrelevance
p3435
V0.588645
p3436
sVtext
p3437
Vearly stage
p3438
sa(dp3439
Vrelevance
p3440
V0.587323
p3441
sVtext
p3442
VParis attacks
p3443
sa(dp3444
Vrelevance
p3445
V0.581356
p3446
sVtext
p3447
Vsuicide vests
p3448
sa(dp3449
Vrelevance
p3450
V0.580535
p3451
sVtext
p3452
VParis prosecutor
p3453
sa(dp3454
Vrelevance
p3455
V0.573975
p3456
sVtext
p3457
Vsecurity forces
p3458
sa(dp3459
Vrelevance
p3460
V0.573948
p3461
sVtext
p3462
Vcriminal conspiracy
p3463
sa(dp3464
Vrelevance
p3465
V0.565889
p3466
sVtext
p3467
VFrance stadium
p3468
sa(dp3469
Vrelevance
p3470
V0.561306
p3471
sVtext
p3472
Vrock concert
p3473
sa(dp3474
Vrelevance
p3475
V0.498269
p3476
sVtext
p3477
Vgunmen
p3478
sa(dp3479
Vrelevance
p3480
V0.496107
p3481
sVtext
p3482
Vprosecutors
p3483
sa(dp3484
Vrelevance
p3485
V0.468711
p3486
sVtext
p3487
Vpolice
p3488
sa(dp3489
Vrelevance
p3490
V0.451391
p3491
sVtext
p3492
VStade
p3493
sa(dp3494
Vrelevance
p3495
V0.450332
p3496
sVtext
p3497
VFacebook
p3498
sa(dp3499
Vrelevance
p3500
V0.443487
p3501
sVtext
p3502
Vexplosives
p3503
sa(dp3504
Vrelevance
p3505
V0.441188
p3506
sVtext
p3507
Vcafes
p3508
sa(dp3509
Vrelevance
p3510
V0.436434
p3511
sVtext
p3512
VFriday
p3513
sa(dp3514
Vrelevance
p3515
V0.43614
p3516
sVtext
p3517
Vmessages
p3518
sa(dp3519
Vrelevance
p3520
V0.435364
p3521
sVtext
p3522
Vcustody
p3523
sa(dp3524
Vrelevance
p3525
V0.43363
p3526
sVtext
p3527
VWednesday
p3528
sa(dp3529
Vrelevance
p3530
V0.432672
p3531
sVtext
p3532
Vpeople
p3533
sassg781
(lp3534
sg817
(dp3535
g819
I1
sg820
I31
sg821
I0
sg822
I1283
sg823
I29
ssa(dp3536
g5
Vhttp://www.bbc.co.uk/news/blogs-trending-35758163?ocid=socialflow_facebook&ns_mchannel=social&ns_campaign=bbcnews&ns_source=facebook
p3537
sg7
VClinton makes gaffe when discussing Nancy Reagan
p3538
sg9
V US Democrat presidential hopeful Hillary Clinton has praised late former first lady Nancy Reagan for starting a "national conversation" on Aids. \u000aBut activists criticised the remarks, saying they masked an ugly legacy. \u000aThe row came as diplomats, politicians and celebrities attended the funeral of Mrs Reagan, who died this week aged 94.\u000aIn an interview with MSNBC, Mrs Clinton praised both Nancy and Ronald Reagan for their "low key advocacy" around Aids. \u000a"It may be hard for your viewers to remember how difficult it was for people to talk about HIV/Aids in the 1980s," Mrs Clinton said. "And because of both President and Mrs Reagan - in particular Mrs Reagan - we started a national conversation."\u000aMany historians and Aids activists responded by pointing out that the Reagan administration was famous for being too slow to respond to the Aids crisis, and too callous when it did. \u000a"Hillary Clinton needs to walk this back immediately or she risks losing the votes of millions of queer Americans who survived the plague," Dan Savage wrote in a blog post at The Stranger. \u000a"We watched our friends and lovers die by the tens of thousands while Nancy and Ronnie sat silently in the White House.\u000a"I'm literally shaking as I try to write this. There are no words for the pain Clinton's remarks have dredged up. I'm supposed to be writing a column - it's way overdue - but all I can think about right now are all of my dead friends, lovely guys who might still be with us if Nancy and Ronald Reagan had started a national conversation about HIV/Aids."\u000aChris Geidner at Buzzfeed recently wrote a long article about how Nancy Reagan denied a personal plea from Rock Hudson for access to an Aids treatment facility. On Twitter, he wrote "The White House did not decide that Aids would be an issue to 'get into' until nearly two years after Hudson's death," in 1985. \u000aRonald Reagan made his first public speech about Aids in 1987.\u000aOthers cited a 1982 press conference where White House spokesman Larry Speakes laughed off a reporter's questions about Aids.\u000a"This was the 'national conversation' that the Reagans started about Aids: laughing at the victims of a 'gay plague'," wrote science writer Steve Silberman. \u000aPeter Staley, an Aids activist who came to prominence during the Reagan administration, tweeted his disbelief at Clinton's remarks. "Did a BernieBro possess @HillaryClinton to say the most offensive thing possible 4 my generation of LGBT Americans?" \u000aAfter a few hours of online outrage, Clinton tweeted an apology: "While the Reagans were strong advocates for stem cell research and finding a cure for Alzheimer's disease, I misspoke about their records on HIV and Aids. For that, I am sorry." \u000aBut the damage has been done. \u000a"Insulting to imply that advocacy for Alzheimer's long after out of office in any way balances Reagan Aids record," wrote New York Magazine's Frank Rich. \u000a"Not. Good. Enough," tweeted Savage. \u000aNext story: A music video about gay love was so controversial that Kenya's media watchdog tried to ban it.  But the censors attempt to stop people watching didn't quite go as planned. SEE MORE \u000a
p3539
sg11
Vhttps://s3.amazonaws.com/prod-cust-photo-posts-jfaikqealaka/3065-cb7c2c2c192057acbe705fcc9428df26.jpg
p3540
sg13
(dp3541
g15
(dp3542
Vmixed
p3543
V1
sVscore
p3544
V-0.474503
p3545
sVtype
p3546
Vnegative
p3547
ssg22
(lp3548
(dp3549
Vscore
p3550
V0.466296
p3551
sVlabel
p3552
V/health and fitness/disease/aids and hiv
p3553
sa(dp3554
Vconfident
p3555
Vno
p3556
sVscore
p3557
V0.311997
p3558
sVlabel
p3559
V/society/gay life
p3560
sa(dp3561
Vconfident
p3562
Vno
p3563
sVscore
p3564
V0.2926
p3565
sVlabel
p3566
V/law, govt and politics/legal issues/human rights
p3567
sasg43
(lp3568
(dp3569
Vrelevance
p3570
V0.926822
p3571
sVcount
p3572
V7
sVtype
p3573
VPerson
p3574
sVdisambiguated
p3575
(dp3576
Vyago
p3577
Vhttp://yago-knowledge.org/resource/Nancy_Reagan
p3578
sVname
p3579
VNancy Reagan
p3580
sVfreebase
p3581
Vhttp://rdf.freebase.com/ns/m.059rv
p3582
sVopencyc
p3583
Vhttp://sw.opencyc.org/concept/Mx4rwPSJc5wpEbGdrcN5Y29ycA
p3584
sVsubType
p3585
(lp3586
VAwardWinner
p3587
aVOfficeHolder
p3588
aVFilmActor
p3589
aVTVActor
p3590
asVdbpedia
p3591
Vhttp://dbpedia.org/resource/Nancy_Reagan
p3592
ssVtext
p3593
VNancy Reagan
p3594
sa(dp3595
Vrelevance
p3596
V0.737217
p3597
sVcount
p3598
V8
sVtype
p3599
VPerson
p3600
sVdisambiguated
p3601
(dp3602
Vwebsite
p3603
Vhttp://www.state.gov/secretary/index.htm
p3604
sVyago
p3605
Vhttp://yago-knowledge.org/resource/Hillary_Rodham_Clinton
p3606
sVname
p3607
VHillary Rodham Clinton
p3608
sVfreebase
p3609
Vhttp://rdf.freebase.com/ns/m.0d06m5
p3610
sVopencyc
p3611
Vhttp://sw.opencyc.org/concept/Mx4rvV7SqpwpEbGdrcN5Y29ycA
p3612
sVsubType
p3613
(lp3614
VPolitician
p3615
aVAppointee
p3616
aVAwardWinner
p3617
aVBoardMember
p3618
aVCelebrity
p3619
aVHallOfFameInductee
p3620
aVOperaCharacter
p3621
aVSenator
p3622
aVU.S.Congressperson
p3623
aVTVActor
p3624
asVdbpedia
p3625
Vhttp://dbpedia.org/resource/Hillary_Rodham_Clinton
p3626
ssVtext
p3627
VHillary Clinton
p3628
sa(dp3629
Vrelevance
p3630
V0.679724
p3631
sVcount
p3632
V8
sVtype
p3633
VHealthCondition
p3634
sVdisambiguated
p3635
(dp3636
Vyago
p3637
Vhttp://yago-knowledge.org/resource/AIDS
p3638
sVname
p3639
VAIDS
p3640
sVfreebase
p3641
Vhttp://rdf.freebase.com/ns/m.0d19y2
p3642
sVopencyc
p3643
Vhttp://sw.opencyc.org/concept/Mx4rwP1LGpwpEbGdrcN5Y29ycA
p3644
sVsubType
p3645
(lp3646
VOrganization
p3647
aVDiseaseOrMedicalCondition
p3648
aVCauseOfDeath
p3649
aVDiseaseCause
p3650
aVRiskFactor
p3651
aVDisease
p3652
aVOrganizationSector
p3653
asVdbpedia
p3654
Vhttp://dbpedia.org/resource/AIDS
p3655
ssVtext
p3656
VAids
p3657
sa(dp3658
Vrelevance
p3659
V0.553772
p3660
sVcount
p3661
V3
sVtype
p3662
VPerson
p3663
sVdisambiguated
p3664
(dp3665
Vyago
p3666
Vhttp://yago-knowledge.org/resource/Ronald_Reagan
p3667
sVname
p3668
VRonald Reagan
p3669
sVfreebase
p3670
Vhttp://rdf.freebase.com/ns/m.06c0j
p3671
sVopencyc
p3672
Vhttp://sw.opencyc.org/concept/Mx4rvVjDZ5wpEbGdrcN5Y29ycA
p3673
sVsubType
p3674
(lp3675
VPolitician
p3676
aVPresident
p3677
aVAwardWinner
p3678
aVChivalricOrderMember
p3679
aVMilitaryPerson
p3680
aVPoliticalAppointer
p3681
aVUSPresident
p3682
aVFilmActor
p3683
aVTVActor
p3684
asVdbpedia
p3685
Vhttp://dbpedia.org/resource/Ronald_Reagan
p3686
ssVtext
p3687
VRonald Reagan
p3688
sa(dp3689
Vrelevance
p3690
V0.428689
p3691
sVcount
p3692
V2
sVtype
p3693
VOrganization
p3694
sVtext
p3695
VReagan administration
p3696
sa(dp3697
Vrelevance
p3698
V0.375823
p3699
sVcount
p3700
V1
sVtype
p3701
VPerson
p3702
sVtext
p3703
VMrs Reagan
p3704
sa(dp3705
Vrelevance
p3706
V0.28305
p3707
sVcount
p3708
V1
sVtype
p3709
VPerson
p3710
sVtext
p3711
VReagan
p3712
sa(dp3713
Vrelevance
p3714
V0.239929
p3715
sVcount
p3716
V2
sVtype
p3717
VFacility
p3718
sVtext
p3719
VWhite House
p3720
sa(dp3721
Vrelevance
p3722
V0.204533
p3723
sVcount
p3724
V1
sVtype
p3725
VCountry
p3726
sVdisambiguated
p3727
(dp3728
Vwebsite
p3729
Vhttp://www.usa.gov/
p3730
sVyago
p3731
Vhttp://yago-knowledge.org/resource/United_States
p3732
sVname
p3733
VUnited States
p3734
sVfreebase
p3735
Vhttp://rdf.freebase.com/ns/m.09c7w0
p3736
sVopencyc
p3737
Vhttp://sw.opencyc.org/concept/Mx4rvVikKpwpEbGdrcN5Y29ycA
p3738
sVsubType
p3739
(lp3740
VLocation
p3741
aVRegion
p3742
aVAdministrativeDivision
p3743
aVGovernmentalJurisdiction
p3744
aVFilmEditor
p3745
asVdbpedia
p3746
Vhttp://dbpedia.org/resource/United_States
p3747
sVciaFactbook
p3748
Vhttp://www4.wiwiss.fu-berlin.de/factbook/resource/United_States
p3749
ssVtext
p3750
VUS
p3751
sa(dp3752
Vrelevance
p3753
V0.201718
p3754
sVcount
p3755
V1
sVtype
p3756
VPerson
p3757
sVdisambiguated
p3758
(dp3759
Vyago
p3760
Vhttp://yago-knowledge.org/resource/Dan_Savage
p3761
sVsubType
p3762
(lp3763
VAwardNominee
p3764
aVAwardWinner
p3765
asVdbpedia
p3766
Vhttp://dbpedia.org/resource/Dan_Savage
p3767
sVname
p3768
VDan Savage
p3769
sVfreebase
p3770
Vhttp://rdf.freebase.com/ns/m.020p0p
p3771
ssVtext
p3772
VDan Savage
p3773
sa(dp3774
Vrelevance
p3775
V0.201679
p3776
sVcount
p3777
V3
sVtype
p3778
VCity
p3779
sVtext
p3780
VRock Hudson
p3781
sa(dp3782
Vrelevance
p3783
V0.1915
p3784
sVcount
p3785
V1
sVtype
p3786
VCompany
p3787
sVdisambiguated
p3788
(dp3789
Vwebsite
p3790
Vhttp://www.msnbc.msn.com/id/3096434/
p3791
sVyago
p3792
Vhttp://yago-knowledge.org/resource/MSNBC
p3793
sVname
p3794
VMSNBC
p3795
sVfreebase
p3796
Vhttp://rdf.freebase.com/ns/m.0152x_
p3797
sVsubType
p3798
(lp3799
VBroadcast
p3800
aVTVNetwork
p3801
asVcrunchbase
p3802
Vhttp://www.crunchbase.com/company/msnbc
p3803
sVdbpedia
p3804
Vhttp://dbpedia.org/resource/MSNBC
p3805
ssVtext
p3806
VMSNBC
p3807
sa(dp3808
Vrelevance
p3809
V0.18683
p3810
sVcount
p3811
V1
sVtype
p3812
VCountry
p3813
sVdisambiguated
p3814
(dp3815
Vwebsite
p3816
Vhttp://www.kenya.go.ke/
p3817
sVyago
p3818
Vhttp://yago-knowledge.org/resource/Kenya
p3819
sVname
p3820
VKenya
p3821
sVfreebase
p3822
Vhttp://rdf.freebase.com/ns/m.019rg5
p3823
sVopencyc
p3824
Vhttp://sw.opencyc.org/concept/Mx4rvViFJZwpEbGdrcN5Y29ycA
p3825
sVsubType
p3826
(lp3827
VLocation
p3828
aVGovernmentalJurisdiction
p3829
aVBoardMember
p3830
asVdbpedia
p3831
Vhttp://dbpedia.org/resource/Kenya
p3832
sVciaFactbook
p3833
Vhttp://www4.wiwiss.fu-berlin.de/factbook/resource/Kenya
p3834
sVgeo
p3835
V-1.2666666666666666 36.8
p3836
ssVtext
p3837
VKenya
p3838
sa(dp3839
Vrelevance
p3840
V0.18625
p3841
sVcount
p3842
V1
sVtype
p3843
VPerson
p3844
sVdisambiguated
p3845
(dp3846
Vyago
p3847
Vhttp://yago-knowledge.org/resource/Larry_Speakes
p3848
sVsubType
p3849
(lp3850
VPolitician
p3851
asVdbpedia
p3852
Vhttp://dbpedia.org/resource/Larry_Speakes
p3853
sVname
p3854
VLarry Speakes
p3855
sVfreebase
p3856
Vhttp://rdf.freebase.com/ns/m.0562c5
p3857
ssVtext
p3858
VLarry Speakes
p3859
sa(dp3860
Vrelevance
p3861
V0.186199
p3862
sVcount
p3863
V1
sVtype
p3864
VOrganization
p3865
sVtext
p3866
VWhite House
p3867
sa(dp3868
Vrelevance
p3869
V0.179929
p3870
sVcount
p3871
V1
sVtype
p3872
VHealthCondition
p3873
sVdisambiguated
p3874
(dp3875
Vyago
p3876
Vhttp://yago-knowledge.org/resource/Alzheimer's_disease
p3877
sVname
p3878
VAlzheimer's disease
p3879
sVfreebase
p3880
Vhttp://rdf.freebase.com/ns/m.0dcsx
p3881
sVopencyc
p3882
Vhttp://sw.opencyc.org/concept/Mx4rviy5ipwpEbGdrcN5Y29ycA
p3883
sVsubType
p3884
(lp3885
VDiseaseOrMedicalCondition
p3886
aVCauseOfDeath
p3887
aVDiseaseCause
p3888
aVRiskFactor
p3889
aVOrganizationSector
p3890
asVdbpedia
p3891
Vhttp://dbpedia.org/resource/Alzheimer's_disease
p3892
ssVtext
p3893
VAlzheimer
p3894
sa(dp3895
Vrelevance
p3896
V0.179742
p3897
sVcount
p3898
V1
sVtype
p3899
VCompany
p3900
sVdisambiguated
p3901
(dp3902
Vwebsite
p3903
Vhttp://twitter.com/
p3904
sVname
p3905
VTwitter
p3906
sVfreebase
p3907
Vhttp://rdf.freebase.com/ns/m.0289n8t
p3908
sVsubType
p3909
(lp3910
VWebsite
p3911
aVVentureFundedCompany
p3912
asVcrunchbase
p3913
Vhttp://www.crunchbase.com/company/twitter
p3914
sVdbpedia
p3915
Vhttp://dbpedia.org/resource/Twitter
p3916
ssVtext
p3917
VTwitter
p3918
sa(dp3919
Vrelevance
p3920
V0.177751
p3921
sVcount
p3922
V1
sVtype
p3923
VPerson
p3924
sVtext
p3925
VChris Geidner
p3926
sa(dp3927
Vrelevance
p3928
V0.174039
p3929
sVcount
p3930
V1
sVtype
p3931
VJobTitle
p3932
sVtext
p3933
VPresident
p3934
sa(dp3935
Vrelevance
p3936
V0.171203
p3937
sVcount
p3938
V1
sVtype
p3939
VPerson
p3940
sVtext
p3941
VPeter Staley
p3942
sa(dp3943
Vrelevance
p3944
V0.170852
p3945
sVcount
p3946
V1
sVtype
p3947
VCompany
p3948
sVdisambiguated
p3949
(dp3950
VsubType
p3951
(lp3952
VWebsite
p3953
asVdbpedia
p3954
Vhttp://dbpedia.org/resource/BuzzFeed
p3955
sVname
p3956
VBuzzFeed
p3957
sVfreebase
p3958
Vhttp://rdf.freebase.com/ns/m.076vlrm
p3959
ssVtext
p3960
VBuzzfeed
p3961
sa(dp3962
Vrelevance
p3963
V0.169535
p3964
sVcount
p3965
V1
sVtype
p3966
VFieldTerminology
p3967
sVtext
p3968
Vmedia watchdog
p3969
sa(dp3970
Vrelevance
p3971
V0.167458
p3972
sVcount
p3973
V1
sVtype
p3974
VPerson
p3975
sVtext
p3976
VSteve Silberman
p3977
sa(dp3978
Vrelevance
p3979
V0.164372
p3980
sVcount
p3981
V1
sVtype
p3982
VPerson
p3983
sVdisambiguated
p3984
(dp3985
Vwebsite
p3986
Vhttp://www.frankrich.com/
p3987
sVyago
p3988
Vhttp://yago-knowledge.org/resource/Frank_Rich
p3989
sVname
p3990
VFrank Rich
p3991
sVfreebase
p3992
Vhttp://rdf.freebase.com/ns/m.06fp1s
p3993
sVsubType
p3994
(lp3995
VTVActor
p3996
asVdbpedia
p3997
Vhttp://dbpedia.org/resource/Frank_Rich
p3998
ssVtext
p3999
VFrank Rich
p4000
sa(dp4001
Vrelevance
p4002
V0.164248
p4003
sVcount
p4004
V1
sVtype
p4005
VPrintMedia
p4006
sVdisambiguated
p4007
(dp4008
Vwebsite
p4009
Vhttp://www.nymag.com
p4010
sVyago
p4011
Vhttp://yago-knowledge.org/resource/New_York_(magazine)
p4012
sVname
p4013
VNew York (magazine)
p4014
sVfreebase
p4015
Vhttp://rdf.freebase.com/ns/m.0354wf
p4016
sVsubType
p4017
(lp4018
VOrganization
p4019
aVCompany
p4020
aVMagazine
p4021
asVdbpedia
p4022
Vhttp://dbpedia.org/resource/New_York_(magazine)
p4023
ssVtext
p4024
VNew York Magazine
p4025
sa(dp4026
Vrelevance
p4027
V0.162329
p4028
sVcount
p4029
V1
sVtype
p4030
VHealthCondition
p4031
sVdisambiguated
p4032
(dp4033
Vyago
p4034
Vhttp://yago-knowledge.org/resource/HIV
p4035
sVname
p4036
VHIV
p4037
sVfreebase
p4038
Vhttp://rdf.freebase.com/ns/m.03p41
p4039
sVopencyc
p4040
Vhttp://sw.opencyc.org/concept/Mx4rwPvQnZwpEbGdrcN5Y29ycA
p4041
sVsubType
p4042
(lp4043
VOrganismClassification
p4044
aVDiseaseOrMedicalCondition
p4045
aVCauseOfDeath
p4046
aVInfectiousDisease
p4047
aVRiskFactor
p4048
aVMedicalSpecialty
p4049
asVdbpedia
p4050
Vhttp://dbpedia.org/resource/HIV
p4051
ssVtext
p4052
VHIV
p4053
sa(dp4054
Vrelevance
p4055
V0.162209
p4056
sVcount
p4057
V1
sVtype
p4058
VHealthCondition
p4059
sVtext
p4060
VAlzheimer's disease
p4061
sa(dp4062
Vrelevance
p4063
V0.154308
p4064
sVcount
p4065
V1
sVtype
p4066
VFieldTerminology
p4067
sVtext
p4068
Vstem cell research
p4069
sa(dp4070
Vrelevance
p4071
V0.153013
p4072
sVcount
p4073
V1
sVtype
p4074
VJobTitle
p4075
sVtext
p4076
Vreporter
p4077
sa(dp4078
Vrelevance
p4079
V0.151275
p4080
sVcount
p4081
V1
sVtype
p4082
VJobTitle
p4083
sVtext
p4084
Vwriter
p4085
sasg525
(dp4086
Vanger
p4087
V0.181473
p4088
sVjoy
p4089
V0.000185
p4090
sVfear
p4091
V0.00254
p4092
sVsadness
p4093
V0.007868
p4094
sVdisgust
p4095
V0.719613
p4096
ssg537
(lp4097
(dp4098
Vyago
p4099
Vhttp://yago-knowledge.org/resource/Ronald_Reagan
p4100
sVtext
p4101
VRonald Reagan
p4102
sVopencyc
p4103
Vhttp://sw.opencyc.org/concept/Mx4rvVjDZ5wpEbGdrcN5Y29ycA
p4104
sVdbpedia
p4105
Vhttp://dbpedia.org/resource/Ronald_Reagan
p4106
sVfreebase
p4107
Vhttp://rdf.freebase.com/ns/m.06c0j
p4108
sVrelevance
p4109
V0.963871
p4110
sa(dp4111
Vyago
p4112
Vhttp://yago-knowledge.org/resource/AIDS
p4113
sVtext
p4114
VAIDS
p4115
sVopencyc
p4116
Vhttp://sw.opencyc.org/concept/Mx4rwP1LGpwpEbGdrcN5Y29ycA
p4117
sVdbpedia
p4118
Vhttp://dbpedia.org/resource/AIDS
p4119
sVfreebase
p4120
Vhttp://rdf.freebase.com/ns/m.0d19y2
p4121
sVrelevance
p4122
V0.813552
p4123
sa(dp4124
Vrelevance
p4125
V0.796573
p4126
sVtext
p4127
VFirst Lady of the United States
p4128
sVwebsite
p4129
Vhttp://www.whitehouse.gov/about/first_ladies/
p4130
sVdbpedia
p4131
Vhttp://dbpedia.org/resource/First_Lady_of_the_United_States
p4132
sVfreebase
p4133
Vhttp://rdf.freebase.com/ns/m.02xy5
p4134
sa(dp4135
Vwebsite
p4136
Vhttp://www.democrats.org/
p4137
sVyago
p4138
Vhttp://yago-knowledge.org/resource/Democratic_Party_(United_States)
p4139
sVtext
p4140
VDemocratic Party
p4141
sVopencyc
p4142
Vhttp://sw.opencyc.org/concept/Mx4rvVifoZwpEbGdrcN5Y29ycA
p4143
sVdbpedia
p4144
Vhttp://dbpedia.org/resource/Democratic_Party_(United_States)
p4145
sVfreebase
p4146
Vhttp://rdf.freebase.com/ns/m.0d075m
p4147
sVrelevance
p4148
V0.648023
p4149
sa(dp4150
Vwebsite
p4151
Vhttp://www.whitehouse.gov/administration/president_obama/
p4152
sVyago
p4153
Vhttp://yago-knowledge.org/resource/President_of_the_United_States
p4154
sVtext
p4155
VPresident of the United States
p4156
sVopencyc
p4157
Vhttp://sw.opencyc.org/concept/Mx4rwQBS0ZwpEbGdrcN5Y29ycA
p4158
sVdbpedia
p4159
Vhttp://dbpedia.org/resource/President_of_the_United_States
p4160
sVfreebase
p4161
Vhttp://rdf.freebase.com/ns/m.060d2
p4162
sVrelevance
p4163
V0.62455
p4164
sa(dp4165
Vyago
p4166
Vhttp://yago-knowledge.org/resource/Nancy_Reagan
p4167
sVtext
p4168
VNancy Reagan
p4169
sVopencyc
p4170
Vhttp://sw.opencyc.org/concept/Mx4rwPSJc5wpEbGdrcN5Y29ycA
p4171
sVdbpedia
p4172
Vhttp://dbpedia.org/resource/Nancy_Reagan
p4173
sVfreebase
p4174
Vhttp://rdf.freebase.com/ns/m.059rv
p4175
sVrelevance
p4176
V0.567447
p4177
sa(dp4178
Vwebsite
p4179
Vhttp://www.clintonlibrary.gov/
p4180
sVyago
p4181
Vhttp://yago-knowledge.org/resource/Bill_Clinton
p4182
sVtext
p4183
VBill Clinton
p4184
sVopencyc
p4185
Vhttp://sw.opencyc.org/concept/Mx4rwQBp5JwpEbGdrcN5Y29ycA
p4186
sVmusicBrainz
p4187
Vhttp://zitgist.com/music/artist/a11bd200-7f0b-43a6-b7fe-4ea04929a42b
p4188
sVdbpedia
p4189
Vhttp://dbpedia.org/resource/Bill_Clinton
p4190
sVfreebase
p4191
Vhttp://rdf.freebase.com/ns/m.0157m
p4192
sVrelevance
p4193
V0.549247
p4194
sa(dp4195
Vwebsite
p4196
Vhttp://www.whitehouse.gov/
p4197
sVyago
p4198
Vhttp://yago-knowledge.org/resource/Barack_Obama
p4199
sVtext
p4200
VBarack Obama
p4201
sVdbpedia
p4202
Vhttp://dbpedia.org/resource/Barack_Obama
p4203
sVfreebase
p4204
Vhttp://rdf.freebase.com/ns/m.02mjmr
p4205
sVrelevance
p4206
V0.53312
p4207
sasg629
(lp4208
(dp4209
Vrelevance
p4210
V0.991631
p4211
sVtext
p4212
VReagan
p4213
sa(dp4214
Vrelevance
p4215
V0.956373
p4216
sVtext
p4217
VMrs Reagan
p4218
sa(dp4219
Vrelevance
p4220
V0.956256
p4221
sVtext
p4222
VRonald Reagan
p4223
sa(dp4224
Vrelevance
p4225
V0.900398
p4226
sVtext
p4227
Vlady Nancy Reagan
p4228
sa(dp4229
Vrelevance
p4230
V0.867568
p4231
sVtext
p4232
Vparticular Mrs Reagan
p4233
sa(dp4234
Vrelevance
p4235
V0.788767
p4236
sVtext
p4237
VReagan administration
p4238
sa(dp4239
Vrelevance
p4240
V0.787861
p4241
sVtext
p4242
Vnational conversation
p4243
sa(dp4244
Vrelevance
p4245
V0.7776
p4246
sVtext
p4247
VReagan Aids record
p4248
sa(dp4249
Vrelevance
p4250
V0.743819
p4251
sVtext
p4252
VWhite House
p4253
sa(dp4254
Vrelevance
p4255
V0.72708
p4256
sVtext
p4257
Vhopeful Hillary Clinton
p4258
sa(dp4259
Vrelevance
p4260
V0.717619
p4261
sVtext
p4262
VMrs Clinton
p4263
sa(dp4264
Vrelevance
p4265
V0.612783
p4266
sVtext
p4267
VAids treatment facility
p4268
sa(dp4269
Vrelevance
p4270
V0.594812
p4271
sVtext
p4272
Vlow key advocacy
p4273
sa(dp4274
Vrelevance
p4275
V0.581189
p4276
sVtext
p4277
Vspokesman Larry Speakes
p4278
sa(dp4279
Vrelevance
p4280
V0.574356
p4281
sVtext
p4282
Vwriter Steve Silberman
p4283
sa(dp4284
Vrelevance
p4285
V0.554124
p4286
sVtext
p4287
Vstem cell research
p4288
sa(dp4289
Vrelevance
p4290
V0.551703
p4291
sVtext
p4292
VNew York Magazine
p4293
sa(dp4294
Vrelevance
p4295
V0.518468
p4296
sVtext
p4297
Vpain Clinton
p4298
sa(dp4299
Vrelevance
p4300
V0.505095
p4301
sVtext
p4302
VAids activists
p4303
sa(dp4304
Vrelevance
p4305
V0.492365
p4306
sVtext
p4307
VAids crisis
p4308
sa(dp4309
Vrelevance
p4310
V0.477968
p4311
sVtext
p4312
VAids activist
p4313
sa(dp4314
Vrelevance
p4315
V0.466063
p4316
sVtext
p4317
Vugly legacy
p4318
sa(dp4319
Vrelevance
p4320
V0.46226
p4321
sVtext
p4322
VChris Geidner
p4323
sa(dp4324
Vrelevance
p4325
V0.459085
p4326
sVtext
p4327
VDan Savage
p4328
sa(dp4329
Vrelevance
p4330
V0.45536
p4331
sVtext
p4332
Vblog post
p4333
sa(dp4334
Vrelevance
p4335
V0.452048
p4336
sVtext
p4337
Vpersonal plea
p4338
sa(dp4339
Vrelevance
p4340
V0.449624
p4341
sVtext
p4342
Vdead friends
p4343
sa(dp4344
Vrelevance
p4345
V0.448562
p4346
sVtext
p4347
Vqueer Americans
p4348
sa(dp4349
Vrelevance
p4350
V0.448341
p4351
sVtext
p4352
VPeter Staley
p4353
sa(dp4354
Vrelevance
p4355
V0.448175
p4356
sVtext
p4357
Vlong article
p4358
sassg781
(lp4359
(dp4360
VfaceRectangle
p4361
(dp4362
Vwidth
p4363
I52
sVtop
p4364
I129
sVleft
p4365
I101
sVheight
p4366
I52
ssVscores
p4367
(dp4368
Vsadness
p4369
F6.4527669999999999e-15
sVneutral
p4370
F5.5929973499999998e-07
sVcontempt
p4371
F2.83143869e-10
sVdisgust
p4372
F1.70707022e-14
sVanger
p4373
F7.1600750000000003e-15
sVsurprise
p4374
F7.3796510000000003e-13
sVfear
p4375
F1.7203389999999999e-16
sVhappiness
p4376
F0.99999946399999995
ssa(dp4377
VfaceRectangle
p4378
(dp4379
Vwidth
p4380
I48
sVtop
p4381
I80
sVleft
p4382
I268
sVheight
p4383
I48
ssVscores
p4384
(dp4385
Vsadness
p4386
F8.80274965e-13
sVneutral
p4387
F9.2830550000000001e-07
sVcontempt
p4388
F8.9054450000000006e-09
sVdisgust
p4389
F4.9020743000000003e-10
sVanger
p4390
F8.460421e-13
sVsurprise
p4391
F2.28531846e-10
sVfear
p4392
F5.1286420000000001e-15
sVhappiness
p4393
F0.999999046
ssa(dp4394
VfaceRectangle
p4395
(dp4396
Vwidth
p4397
I41
sVtop
p4398
I193
sVleft
p4399
I372
sVheight
p4400
I41
ssVscores
p4401
(dp4402
Vsadness
p4403
F0.0132612567
sVneutral
p4404
F0.95369166100000002
sVcontempt
p4405
F0.0097932910000000008
sVdisgust
p4406
F0.0019435269099999999
sVanger
p4407
F0.0032427336600000002
sVsurprise
p4408
F0.002413484
sVfear
p4409
F0.00068796289999999995
sVhappiness
p4410
F0.0149661042
ssasg817
(dp4411
g819
I4
sg820
I41
sg821
I19
sg822
I1477
sg823
I2
ssa(dp4412
g5
Vhttp://www.bbc.co.uk/news/business-35788379?ocid=socialflow_facebook&ns_mchannel=social&ns_campaign=bbcnews&ns_source=facebook
p4413
sg7
VGeorge Osborne 'planning' rise in insurance tax
p4414
sg9
VMillions of households could face an increase in insurance costs, following a warning that the chancellor may target premiums in next week's Budget.\u000aThe insurance industry has claimed that George Osborne is planning another increase in Insurance Premium Tax (IPT).\u000aThe tax was raised from 6% to 9.5% in November 2015.\u000aThe Treasury said it would not comment on speculation about the Budget, which takes place on Wednesday.\u000aThe AA said that a further increase, to 12.5%, would mean that the tax could be doubled in less than six months. \u000aSuch a rise would add 37 a year to the average car insurance premium, it said.\u000aIPT is charged on motor, home, pet and medical insurance, as well as car breakdown cover.\u000aTravel insurance, and insurance on some electrical products, attracts the higher rate of 20%. \u000aEdmund King, the president of the AA, said it was ridiculous that the insurance industry might be singled out.\u000a"Treasury minister Harriett Baldwin MP told us in a letter, 'IPT is not a tax on consumers but on insurance companies,' which is like saying fuel duty is not a tax on drivers but on petrol stations," he said.\u000aThe British Insurance Brokers' Association (Biba) said a rise in IPT would discourage customers from taking out policies.\u000aThe cost of motor policies rose more than 20% last year, according to the AA - partly as a result of November's rise in IPT.\u000aHowever, many premiums have fallen over the longer term, making the tax a relatively easy target for the chancellor.\u000aAn increase in IPT could raise as much as 1.3bn for the Treasury in the first year.\u000aGeorge Osborne has already rejected plans to scale back tax relief on pension contributions - a change that could have netted the government up to 7bn a year.\u000aAnother alternative - raising fuel duty - has proved unpopular with some Tory MPs.\u000a
p4415
sg11
Vhttps://s3.amazonaws.com/prod-cust-photo-posts-jfaikqealaka/3065-cb8a1f66221c4f95df75dcb0f9f97881.jpg
p4416
sg13
(dp4417
g15
(dp4418
Vmixed
p4419
V1
sVscore
p4420
V-0.144297
p4421
sVtype
p4422
Vnegative
p4423
ssg22
(lp4424
(dp4425
Vscore
p4426
V0.618191
p4427
sVlabel
p4428
V/finance/personal finance/insurance
p4429
sa(dp4430
Vconfident
p4431
Vno
p4432
sVscore
p4433
V0.300242
p4434
sVlabel
p4435
V/business and industrial/energy/oil/oil and gas prices
p4436
sa(dp4437
Vconfident
p4438
Vno
p4439
sVscore
p4440
V0.225991
p4441
sVlabel
p4442
V/finance/personal finance/financial planning/retirement and pension
p4443
sasg43
(lp4444
(dp4445
Vrelevance
p4446
V0.93017
p4447
sVcount
p4448
V4
sVtype
p4449
VCompany
p4450
sVtext
p4451
VIPT
p4452
sa(dp4453
Vrelevance
p4454
V0.750155
p4455
sVcount
p4456
V2
sVtype
p4457
VFieldTerminology
p4458
sVtext
p4459
Vinsurance premium
p4460
sa(dp4461
Vrelevance
p4462
V0.685308
p4463
sVcount
p4464
V2
sVtype
p4465
VFieldTerminology
p4466
sVtext
p4467
Vinsurance industry
p4468
sa(dp4469
Vrelevance
p4470
V0.624985
p4471
sVcount
p4472
V1
sVtype
p4473
VOrganization
p4474
sVtext
p4475
VIPT
p4476
sa(dp4477
Vrelevance
p4478
V0.592208
p4479
sVcount
p4480
V1
sVtype
p4481
VFieldTerminology
p4482
sVtext
p4483
Vinsurance costs
p4484
sa(dp4485
Vrelevance
p4486
V0.572256
p4487
sVcount
p4488
V3
sVtype
p4489
VOrganization
p4490
sVdisambiguated
p4491
(dp4492
VsubType
p4493
(lp4494
VFieldOfStudy
p4495
aVAwardDiscipline
p4496
aVProfession
p4497
asVdbpedia
p4498
Vhttp://dbpedia.org/resource/Art
p4499
sVname
p4500
VArt
p4501
sVfreebase
p4502
Vhttp://rdf.freebase.com/ns/m.0jjw
p4503
ssVtext
p4504
VAA
p4505
sa(dp4506
Vrelevance
p4507
V0.54939
p4508
sVcount
p4509
V3
sVtype
p4510
VOrganization
p4511
sVdisambiguated
p4512
(dp4513
Vwebsite
p4514
Vhttp://www.treasury.govt.nz/
p4515
sVyago
p4516
Vhttp://yago-knowledge.org/resource/New_Zealand_Treasury
p4517
sVname
p4518
VNew Zealand Treasury
p4519
sVfreebase
p4520
Vhttp://rdf.freebase.com/ns/m.0cz6p1
p4521
sVdbpedia
p4522
Vhttp://dbpedia.org/resource/New_Zealand_Treasury
p4523
sVgeo
p4524
V-41.27909 174.775684
p4525
ssVtext
p4526
VTreasury
p4527
sa(dp4528
Vrelevance
p4529
V0.507494
p4530
sVcount
p4531
V1
sVtype
p4532
VOrganization
p4533
sVtext
p4534
VBritish Insurance Brokers' Association
p4535
sa(dp4536
Vrelevance
p4537
V0.505896
p4538
sVcount
p4539
V2
sVtype
p4540
VPerson
p4541
sVtext
p4542
VGeorge Osborne
p4543
sa(dp4544
Vrelevance
p4545
V0.45492
p4546
sVcount
p4547
V1
sVtype
p4548
VFieldTerminology
p4549
sVtext
p4550
Vinsurance companies
p4551
sa(dp4552
Vrelevance
p4553
V0.440944
p4554
sVcount
p4555
V2
sVtype
p4556
VJobTitle
p4557
sVtext
p4558
Vchancellor
p4559
sa(dp4560
Vrelevance
p4561
V0.439719
p4562
sVcount
p4563
V1
sVtype
p4564
VFieldTerminology
p4565
sVtext
p4566
Vtax relief
p4567
sa(dp4568
Vrelevance
p4569
V0.387065
p4570
sVcount
p4571
V2
sVtype
p4572
VPerson
p4573
sVtext
p4574
VHarriett Baldwin MP
p4575
sa(dp4576
Vrelevance
p4577
V0.280913
p4578
sVcount
p4579
V1
sVtype
p4580
VPerson
p4581
sVtext
p4582
VEdmund King
p4583
sa(dp4584
Vrelevance
p4585
V0.275509
p4586
sVcount
p4587
V1
sVtype
p4588
VCompany
p4589
sVtext
p4590
VBiba
p4591
sa(dp4592
Vrelevance
p4593
V0.247058
p4594
sVcount
p4595
V1
sVtype
p4596
VJobTitle
p4597
sVtext
p4598
Vpresident
p4599
sa(dp4600
Vrelevance
p4601
V0.247058
p4602
sVcount
p4603
V2
sVtype
p4604
VQuantity
p4605
sVtext
p4606
V20%
p4607
sa(dp4608
Vrelevance
p4609
V0.247058
p4610
sVcount
p4611
V1
sVtype
p4612
VQuantity
p4613
sVtext
p4614
Vsix months
p4615
sa(dp4616
Vrelevance
p4617
V0.247058
p4618
sVcount
p4619
V1
sVtype
p4620
VQuantity
p4621
sVtext
p4622
V12.5%
p4623
sa(dp4624
Vrelevance
p4625
V0.247058
p4626
sVcount
p4627
V1
sVtype
p4628
VQuantity
p4629
sVtext
p4630
V9.5%
p4631
sa(dp4632
Vrelevance
p4633
V0.247058
p4634
sVcount
p4635
V1
sVtype
p4636
VQuantity
p4637
sVtext
p4638
V6%
p4639
sasg525
(dp4640
Vanger
p4641
V0.208757
p4642
sVjoy
p4643
V0.00151
p4644
sVfear
p4645
V0.041855
p4646
sVsadness
p4647
V0.021857
p4648
sVdisgust
p4649
V0.576672
p4650
ssg537
(lp4651
(dp4652
Vrelevance
p4653
V0.971618
p4654
sVtext
p4655
VInsurance
p4656
sVopencyc
p4657
Vhttp://sw.opencyc.org/concept/Mx4rvWNwLZwpEbGdrcN5Y29ycA
p4658
sVdbpedia
p4659
Vhttp://dbpedia.org/resource/Insurance
p4660
sVfreebase
p4661
Vhttp://rdf.freebase.com/ns/m.03xks
p4662
sa(dp4663
Vrelevance
p4664
V0.741891
p4665
sVtext
p4666
VPension
p4667
sVopencyc
p4668
Vhttp://sw.opencyc.org/concept/Mx4rmzbZnk1vQdmT35fI9sGz7A
p4669
sVdbpedia
p4670
Vhttp://dbpedia.org/resource/Pension
p4671
sVfreebase
p4672
Vhttp://rdf.freebase.com/ns/m.0by51
p4673
sa(dp4674
Vrelevance
p4675
V0.515006
p4676
sVtext
p4677
VBoiler insurance
p4678
sVyago
p4679
Vhttp://yago-knowledge.org/resource/Boiler_insurance
p4680
sVdbpedia
p4681
Vhttp://dbpedia.org/resource/Boiler_insurance
p4682
sVfreebase
p4683
Vhttp://rdf.freebase.com/ns/m.017st8
p4684
sa(dp4685
Vyago
p4686
Vhttp://yago-knowledge.org/resource/Travel_insurance
p4687
sVtext
p4688
VTravel insurance
p4689
sVopencyc
p4690
Vhttp://sw.opencyc.org/concept/Mx4rlkf8lEPqQdmczfoWyncotg
p4691
sVdbpedia
p4692
Vhttp://dbpedia.org/resource/Travel_insurance
p4693
sVfreebase
p4694
Vhttp://rdf.freebase.com/ns/m.08jvtd
p4695
sVrelevance
p4696
V0.510211
p4697
sasg629
(lp4698
(dp4699
Vrelevance
p4700
V0.725126
p4701
sVtext
p4702
VGeorge Osborne
p4703
sa(dp4704
Vrelevance
p4705
V0.706858
p4706
sVtext
p4707
VTreasury minister Harriett
p4708
sa(dp4709
Vrelevance
p4710
V0.690795
p4711
sVtext
p4712
Vinsurance premium
p4713
sa(dp4714
Vrelevance
p4715
V0.68722
p4716
sVtext
p4717
Vcar insurance premium
p4718
sa(dp4719
Vrelevance
p4720
V0.669247
p4721
sVtext
p4722
Vinsurance industry
p4723
sa(dp4724
Vrelevance
p4725
V0.648701
p4726
sVtext
p4727
VBritish Insurance Brokers
p4728
sa(dp4729
Vrelevance
p4730
V0.644891
p4731
sVtext
p4732
Vcar breakdown cover
p4733
sa(dp4734
Vrelevance
p4735
V0.625886
p4736
sVtext
p4737
Vrelatively easy target
p4738
sa(dp4739
Vrelevance
p4740
V0.606621
p4741
sVtext
p4742
Vfuel duty
p4743
sa(dp4744
Vrelevance
p4745
V0.506232
p4746
sVtext
p4747
Vinsurance costs
p4748
sa(dp4749
Vrelevance
p4750
V0.474828
p4751
sVtext
p4752
Vmedical insurance
p4753
sa(dp4754
Vrelevance
p4755
V0.472192
p4756
sVtext
p4757
VTravel insurance
p4758
sa(dp4759
Vrelevance
p4760
V0.463508
p4761
sVtext
p4762
Vinsurance companies
p4763
sa(dp4764
Vrelevance
p4765
V0.457698
p4766
sVtext
p4767
VTory MPs
p4768
sa(dp4769
Vrelevance
p4770
V0.452865
p4771
sVtext
p4772
Vincrease
p4773
sa(dp4774
Vrelevance
p4775
V0.45196
p4776
sVtext
p4777
VBaldwin MP
p4778
sa(dp4779
Vrelevance
p4780
V0.449001
p4781
sVtext
p4782
Vpetrol stations
p4783
sa(dp4784
Vrelevance
p4785
V0.44293
p4786
sVtext
p4787
Velectrical products
p4788
sa(dp4789
Vrelevance
p4790
V0.442874
p4791
sVtext
p4792
VEdmund King
p4793
sa(dp4794
Vrelevance
p4795
V0.440367
p4796
sVtext
p4797
Vtax relief
p4798
sa(dp4799
Vrelevance
p4800
V0.434252
p4801
sVtext
p4802
Vhigher rate
p4803
sa(dp4804
Vrelevance
p4805
V0.428686
p4806
sVtext
p4807
Vpension contributions
p4808
sa(dp4809
Vrelevance
p4810
V0.424041
p4811
sVtext
p4812
Vlonger term
p4813
sa(dp4814
Vrelevance
p4815
V0.419465
p4816
sVtext
p4817
Vmotor policies
p4818
sa(dp4819
Vrelevance
p4820
V0.363165
p4821
sVtext
p4822
VAA
p4823
sa(dp4824
Vrelevance
p4825
V0.350392
p4826
sVtext
p4827
Vrise
p4828
sa(dp4829
Vrelevance
p4830
V0.330019
p4831
sVtext
p4832
Vpremiums
p4833
sa(dp4834
Vrelevance
p4835
V0.328241
p4836
sVtext
p4837
Vchancellor
p4838
sassg781
(lp4839
sg817
(dp4840
g819
I1
sg820
I70
sg821
I0
sg822
I806
sg823
I6
ssa(dp4841
g5
Vhttp://www.bbc.co.uk/newsround/35793463?ocid=socialflow_facebook&ns_mchannel=social&ns_campaign=bbcnews&ns_source=facebook
p4842
sg7
VHarry Styles lands role in new war film Dunkirk
p4843
sg9
VHarry Styles has reportedly landed his first film role in Christopher Nolan's war drama 'Dunkirk'.\u000aThe 22-year-old singer will star in the film, according to US magazine Variety, but it's thought to be a small part.\u000aThe drama, which is due for release in 2017, will recreate the events of the World War II evacuation of the French city Dunkirk in 1940. \u000aStyles will appear alongside British actors Tom Hardy, Oscar-winner Mark Rylance and Sir Kenneth Branagh in the film.\u000aWarner Bros, who are making the movie, are yet to comment on Harry's role. Newsround has contacted a representative for Styles for comment.\u000aHarry shot to fame in 2010 when he became a member of the pop group One Direction on the British talent show, The X Factor.\u000aThe four members are currently on a year-long break from the band, which began after they released their fifth album in March 2016.\u000a Copyright  2016 BBC. The BBC is not responsible for the content of external sites. Read about our approach to external linking.  \u000a
p4844
sg11
Vhttps://s3.amazonaws.com/prod-cust-photo-posts-jfaikqealaka/3065-fd2d4fba53f33d79d120b4b9aacaa11a.JPG
p4845
sg13
(dp4846
g15
(dp4847
Vmixed
p4848
V1
sVscore
p4849
V0.108498
p4850
sVtype
p4851
Vpositive
p4852
ssg22
(lp4853
(dp4854
Vscore
p4855
V0.502304
p4856
sVlabel
p4857
V/art and entertainment/movies and tv/movies
p4858
sa(dp4859
Vscore
p4860
V0.426336
p4861
sVlabel
p4862
V/business and industrial/advertising and marketing/advertising
p4863
sa(dp4864
Vscore
p4865
V0.404589
p4866
sVlabel
p4867
V/society/unrest and war
p4868
sasg43
(lp4869
(dp4870
Vrelevance
p4871
V0.801361
p4872
sVcount
p4873
V6
sVtype
p4874
VPerson
p4875
sVtext
p4876
VHarry Styles
p4877
sa(dp4878
Vrelevance
p4879
V0.303485
p4880
sVcount
p4881
V2
sVtype
p4882
VCompany
p4883
sVdisambiguated
p4884
(dp4885
Vwebsite
p4886
Vhttp://www.bbc.co.uk
p4887
sVyago
p4888
Vhttp://yago-knowledge.org/resource/BBC
p4889
sVname
p4890
VBBC
p4891
sVfreebase
p4892
Vhttp://rdf.freebase.com/ns/m.0g5lhl7
p4893
sVopencyc
p4894
Vhttp://sw.opencyc.org/concept/Mx4rwMl8FpwpEbGdrcN5Y29ycA
p4895
sVsubType
p4896
(lp4897
VMusicalAlbum
p4898
aVBroadcast
p4899
aVPeriodicalPublisher
p4900
aVProductionCompany
p4901
aVTVNetwork
p4902
aVAwardNominee
p4903
aVAwardWinner
p4904
aVFilmDirector
p4905
aVFilmProducer
p4906
aVMusicalArtist
p4907
aVTVProducer
p4908
asVcrunchbase
p4909
Vhttp://www.crunchbase.com/company/bbc
p4910
sVdbpedia
p4911
Vhttp://dbpedia.org/resource/BBC
p4912
ssVtext
p4913
VBBC
p4914
sa(dp4915
Vrelevance
p4916
V0.278769
p4917
sVcount
p4918
V1
sVtype
p4919
VFieldTerminology
p4920
sVtext
p4921
VWorld War II
p4922
sa(dp4923
Vrelevance
p4924
V0.268849
p4925
sVcount
p4926
V1
sVtype
p4927
VPrintMedia
p4928
sVtext
p4929
VUS magazine Variety
p4930
sa(dp4931
Vrelevance
p4932
V0.265879
p4933
sVcount
p4934
V1
sVtype
p4935
VPerson
p4936
sVdisambiguated
p4937
(dp4938
Vyago
p4939
Vhttp://yago-knowledge.org/resource/Kenneth_Branagh
p4940
sVname
p4941
VKenneth Branagh
p4942
sVfreebase
p4943
Vhttp://rdf.freebase.com/ns/m.0prjs
p4944
sVopencyc
p4945
Vhttp://sw.opencyc.org/concept/Mx4rvX1FM5wpEbGdrcN5Y29ycA
p4946
sVsubType
p4947
(lp4948
VActor
p4949
aVAwardNominee
p4950
aVAwardWinner
p4951
aVCelebrity
p4952
aVFilmActor
p4953
aVFilmDirector
p4954
aVFilmProducer
p4955
aVTheaterActor
p4956
aVTVActor
p4957
aVTVProducer
p4958
aVFilmWriter
p4959
asVdbpedia
p4960
Vhttp://dbpedia.org/resource/Kenneth_Branagh
p4961
ssVtext
p4962
VSir Kenneth Branagh
p4963
sa(dp4964
Vrelevance
p4965
V0.261416
p4966
sVcount
p4967
V1
sVtype
p4968
VPerson
p4969
sVtext
p4970
VChristopher Nolan
p4971
sa(dp4972
Vrelevance
p4973
V0.259542
p4974
sVcount
p4975
V2
sVtype
p4976
VPerson
p4977
sVtext
p4978
VHarry
p4979
sa(dp4980
Vrelevance
p4981
V0.25666
p4982
sVcount
p4983
V1
sVtype
p4984
VCompany
p4985
sVdisambiguated
p4986
(dp4987
Vwebsite
p4988
Vhttp://www.warnerbros.com
p4989
sVyago
p4990
Vhttp://yago-knowledge.org/resource/Warner_Bros.
p4991
sVname
p4992
VWarner Bros.
p4993
sVfreebase
p4994
Vhttp://rdf.freebase.com/ns/m.086k8
p4995
sVopencyc
p4996
Vhttp://sw.opencyc.org/concept/Mx4r0OHD2C9NQdiZa91EcGtGBA
p4997
sVsubType
p4998
(lp4999
VPerson
p5000
aVLocation
p5001
aVBrand
p5002
aVAwardNominee
p5003
aVAwardWinner
p5004
aVFilmCinematographer
p5005
aVFilmProducer
p5006
aVTVProducer
p5007
aVFilmCompany
p5008
aVFilmDistributor
p5009
aVProductionCompany
p5010
aVRecordLabel
p5011
aVTVNetwork
p5012
aVVideoGameDeveloper
p5013
aVVideoGamePublisher
p5014
asVcrunchbase
p5015
Vhttp://www.crunchbase.com/company/warner-bros
p5016
sVdbpedia
p5017
Vhttp://dbpedia.org/resource/Warner_Bros.
p5018
ssVtext
p5019
VWarner Bros
p5020
sa(dp5021
Vrelevance
p5022
V0.221466
p5023
sVcount
p5024
V1
sVtype
p5025
VPerson
p5026
sVtext
p5027
VNewsround
p5028
sa(dp5029
Vrelevance
p5030
V0.205125
p5031
sVcount
p5032
V1
sVtype
p5033
VPerson
p5034
sVtext
p5035
VTom Hardy
p5036
sa(dp5037
Vrelevance
p5038
V0.191471
p5039
sVcount
p5040
V1
sVtype
p5041
VJobTitle
p5042
sVtext
p5043
Vrepresentative
p5044
sa(dp5045
Vrelevance
p5046
V0.190714
p5047
sVcount
p5048
V1
sVtype
p5049
VPerson
p5050
sVdisambiguated
p5051
(dp5052
Vwebsite
p5053
Vhttp://www.MarkRylance.wordpress.com
p5054
sVyago
p5055
Vhttp://yago-knowledge.org/resource/Mark_Rylance
p5056
sVname
p5057
VMark Rylance
p5058
sVfreebase
p5059
Vhttp://rdf.freebase.com/ns/m.06xh_m
p5060
sVsubType
p5061
(lp5062
VActor
p5063
aVFilmActor
p5064
aVTheaterActor
p5065
aVTVActor
p5066
asVdbpedia
p5067
Vhttp://dbpedia.org/resource/Mark_Rylance
p5068
ssVtext
p5069
VMark Rylance
p5070
sa(dp5071
Vrelevance
p5072
V0.190714
p5073
sVcount
p5074
V1
sVtype
p5075
VQuantity
p5076
sVtext
p5077
V22-year
p5078
sasg525
(dp5079
Vanger
p5080
V0.053516
p5081
sVjoy
p5082
V0.001342
p5083
sVfear
p5084
V0.121986
p5085
sVsadness
p5086
V0.108506
p5087
sVdisgust
p5088
V0.269997
p5089
ssg537
(lp5090
(dp5091
Vrelevance
p5092
V0.965358
p5093
sVtext
p5094
VWorld War II
p5095
sVyago
p5096
Vhttp://yago-knowledge.org/resource/World_War_II
p5097
sVdbpedia
p5098
Vhttp://dbpedia.org/resource/World_War_II
p5099
sVfreebase
p5100
Vhttp://rdf.freebase.com/ns/m.081pw
p5101
sa(dp5102
Vrelevance
p5103
V0.81596
p5104
sVtext
p5105
VActor
p5106
sVopencyc
p5107
Vhttp://sw.opencyc.org/concept/Mx4rvVjaHZwpEbGdrcN5Y29ycA
p5108
sVdbpedia
p5109
Vhttp://dbpedia.org/resource/Actor
p5110
sVfreebase
p5111
Vhttp://rdf.freebase.com/ns/m.02hrh1q
p5112
sa(dp5113
Vrelevance
p5114
V0.7457
p5115
sVtext
p5116
VFilm director
p5117
sVdbpedia
p5118
Vhttp://dbpedia.org/resource/Film_director
p5119
sVfreebase
p5120
Vhttp://rdf.freebase.com/ns/m.02jknp
p5121
sa(dp5122
Vrelevance
p5123
V0.686986
p5124
sVtext
p5125
VFilm
p5126
sVopencyc
p5127
Vhttp://sw.opencyc.org/concept/Mx4rwP19XJwpEbGdrcN5Y29ycA
p5128
sVdbpedia
p5129
Vhttp://dbpedia.org/resource/Film
p5130
sVfreebase
p5131
Vhttp://rdf.freebase.com/ns/m.02vxn
p5132
sa(dp5133
Vwebsite
p5134
Vhttp://www.warnerbros.com
p5135
sVyago
p5136
Vhttp://yago-knowledge.org/resource/Warner_Bros.
p5137
sVtext
p5138
VWarner Bros.
p5139
sVopencyc
p5140
Vhttp://sw.opencyc.org/concept/Mx4r0OHD2C9NQdiZa91EcGtGBA
p5141
sVcrunchbase
p5142
Vhttp://www.crunchbase.com/company/warner-bros
p5143
sVdbpedia
p5144
Vhttp://dbpedia.org/resource/Warner_Bros.
p5145
sVfreebase
p5146
Vhttp://rdf.freebase.com/ns/m.086k8
p5147
sVrelevance
p5148
V0.681121
p5149
sa(dp5150
Vrelevance
p5151
V0.65527
p5152
sVtext
p5153
V2016
p5154
sVyago
p5155
Vhttp://yago-knowledge.org/resource/2016
p5156
sVdbpedia
p5157
Vhttp://dbpedia.org/resource/2016
p5158
sa(dp5159
Vrelevance
p5160
V0.63503
p5161
sVtext
p5162
V2017
p5163
sVyago
p5164
Vhttp://yago-knowledge.org/resource/2017
p5165
sVdbpedia
p5166
Vhttp://dbpedia.org/resource/2017
p5167
sVfreebase
p5168
Vhttp://rdf.freebase.com/ns/m.0dkb4
p5169
sa(dp5170
Vwebsite
p5171
Vhttp://www.danniimusic.com/
p5172
sVyago
p5173
Vhttp://yago-knowledge.org/resource/Dannii_Minogue
p5174
sVtext
p5175
VDannii Minogue
p5176
sVopencyc
p5177
Vhttp://sw.opencyc.org/concept/Mx4rv2yFPJwpEbGdrcN5Y29ycA
p5178
sVmusicBrainz
p5179
Vhttp://zitgist.com/music/artist/4cab12f3-af12-4a55-ade2-606bd9524425
p5180
sVdbpedia
p5181
Vhttp://dbpedia.org/resource/Dannii_Minogue
p5182
sVfreebase
p5183
Vhttp://rdf.freebase.com/ns/m.0c7ct
p5184
sVrelevance
p5185
V0.634378
p5186
sasg629
(lp5187
(dp5188
Vrelevance
p5189
V0.873164
p5190
sVtext
p5191
VFrench city Dunkirk
p5192
sa(dp5193
Vrelevance
p5194
V0.806936
p5195
sVtext
p5196
VSir Kenneth Branagh
p5197
sa(dp5198
Vrelevance
p5199
V0.769082
p5200
sVtext
p5201
Vactors Tom Hardy
p5202
sa(dp5203
Vrelevance
p5204
V0.75245
p5205
sVtext
p5206
VOscar-winner Mark Rylance
p5207
sa(dp5208
Vrelevance
p5209
V0.612761
p5210
sVtext
p5211
VHarry Styles
p5212
sa(dp5213
Vrelevance
p5214
V0.604095
p5215
sVtext
p5216
V22-year-old singer
p5217
sa(dp5218
Vrelevance
p5219
V0.558618
p5220
sVtext
p5221
VChristopher Nolan
p5222
sa(dp5223
Vrelevance
p5224
V0.530961
p5225
sVtext
p5226
Vmagazine Variety
p5227
sa(dp5228
Vrelevance
p5229
V0.530095
p5230
sVtext
p5231
Vfilm role
p5232
sa(dp5233
Vrelevance
p5234
V0.528812
p5235
sVtext
p5236
VWar II evacuation
p5237
sa(dp5238
Vrelevance
p5239
V0.525333
p5240
sVtext
p5241
Vyear-long break
p5242
sa(dp5243
Vrelevance
p5244
V0.517975
p5245
sVtext
p5246
Vexternal linking
p5247
sa(dp5248
Vrelevance
p5249
V0.516436
p5250
sVtext
p5251
VWarner Bros
p5252
sa(dp5253
Vrelevance
p5254
V0.509545
p5255
sVtext
p5256
Vexternal sites
p5257
sa(dp5258
Vrelevance
p5259
V0.483694
p5260
sVtext
p5261
VBritish talent
p5262
sa(dp5263
Vrelevance
p5264
V0.483197
p5265
sVtext
p5266
Vpop group
p5267
sa(dp5268
Vrelevance
p5269
V0.305087
p5270
sVtext
p5271
VNewsround
p5272
sa(dp5273
Vrelevance
p5274
V0.28579
p5275
sVtext
p5276
VBBC
p5277
sa(dp5278
Vrelevance
p5279
V0.284434
p5280
sVtext
p5281
Vcomment
p5282
sa(dp5283
Vrelevance
p5284
V0.257698
p5285
sVtext
p5286
VFactor
p5287
sa(dp5288
Vrelevance
p5289
V0.251253
p5290
sVtext
p5291
Vrepresentative
p5292
sa(dp5293
Vrelevance
p5294
V0.25024
p5295
sVtext
p5296
VDirection
p5297
sa(dp5298
Vrelevance
p5299
V0.249638
p5300
sVtext
p5301
VCopyright
p5302
sa(dp5303
Vrelevance
p5304
V0.249008
p5305
sVtext
p5306
Vrelease
p5307
sa(dp5308
Vrelevance
p5309
V0.24882
p5310
sVtext
p5311
Vevents
p5312
sa(dp5313
Vrelevance
p5314
V0.248739
p5315
sVtext
p5316
VWorld
p5317
sa(dp5318
Vrelevance
p5319
V0.246805
p5320
sVtext
p5321
Vmovie
p5322
sa(dp5323
Vrelevance
p5324
V0.24569
p5325
sVtext
p5326
Vfame
p5327
sa(dp5328
Vrelevance
p5329
V0.24546
p5330
sVtext
p5331
Vapproach
p5332
sassg781
(lp5333
(dp5334
VfaceRectangle
p5335
(dp5336
Vwidth
p5337
I93
sVtop
p5338
I70
sVleft
p5339
I237
sVheight
p5340
I93
ssVscores
p5341
(dp5342
Vsadness
p5343
F0.03190598
sVneutral
p5344
F0.44764205800000001
sVcontempt
p5345
F0.047187693400000001
sVdisgust
p5346
F0.1149806
sVanger
p5347
F0.0499777421
sVsurprise
p5348
F0.034299999999999997
sVfear
p5349
F0.00450986437
sVhappiness
p5350
F0.269496083
ssasg817
(dp5351
g819
I31
sg820
I16
sg821
I11
sg822
I2309
sg823
I3
ssa(dp5352
g5
Vhttp://www.bbc.co.uk/news/uk-politics-35793673?ocid=socialflow_facebook&ns_mchannel=social&ns_campaign=bbcnews&ns_source=facebook
p5353
sg7
VJohn McDonnell: 'Labour is mainstream'
p5354
sg9
VLabour is now "mainstream", shadow chancellor John McDonnell has told the Today programme, following his announcement yesterday that a future Labour government would control public spending through a "fiscal credibility" lock.\u000a Copyright  2016 BBC. The BBC is not responsible for the content of external sites. Read about our approach to external linking.  \u000a
p5355
sg11
Vhttp://ichef.bbci.co.uk/news/1024/cpsprodpb/6205/production/_88739052_p03mff5w.jpg
p5356
sg13
(dp5357
g15
(dp5358
Vmixed
p5359
V1
sVscore
p5360
V-0.356563
p5361
sVtype
p5362
Vnegative
p5363
ssg22
(lp5364
(dp5365
Vscore
p5366
V0.550822
p5367
sVlabel
p5368
V/business and industrial/advertising and marketing/advertising
p5369
sa(dp5370
Vscore
p5371
V0.472261
p5372
sVlabel
p5373
V/health and fitness/alternative medicine/holistic healing
p5374
sa(dp5375
Vscore
p5376
V0.404848
p5377
sVlabel
p5378
V/law, govt and politics/legal issues/civil law/copyright
p5379
sasg43
(lp5380
(dp5381
Vrelevance
p5382
V0.901869
p5383
sVcount
p5384
V1
sVtype
p5385
VOrganization
p5386
sVtext
p5387
VLabour government
p5388
sa(dp5389
Vrelevance
p5390
V0.819262
p5391
sVcount
p5392
V2
sVtype
p5393
VCompany
p5394
sVtext
p5395
VBBC
p5396
sa(dp5397
Vrelevance
p5398
V0.680988
p5399
sVcount
p5400
V1
sVtype
p5401
VPerson
p5402
sVtext
p5403
VJohn McDonnell
p5404
sa(dp5405
Vrelevance
p5406
V0.566518
p5407
sVcount
p5408
V1
sVtype
p5409
VJobTitle
p5410
sVtext
p5411
Vchancellor
p5412
sasg525
(dp5413
Vanger
p5414
V0.225808
p5415
sVjoy
p5416
V0.002233
p5417
sVfear
p5418
V0.115788
p5419
sVsadness
p5420
V0.256409
p5421
sVdisgust
p5422
V0.112573
p5423
ssg537
(lp5424
(dp5425
Vwebsite
p5426
Vhttp://www.conservatives.com/
p5427
sVyago
p5428
Vhttp://yago-knowledge.org/resource/Conservative_Party_(UK)
p5429
sVtext
p5430
VConservative Party
p5431
sVopencyc
p5432
Vhttp://sw.opencyc.org/concept/Mx4rPn-jPo2jQdid8_uJm5y7pw
p5433
sVdbpedia
p5434
Vhttp://dbpedia.org/resource/Conservative_Party_(UK)
p5435
sVfreebase
p5436
Vhttp://rdf.freebase.com/ns/m.07wpm
p5437
sVrelevance
p5438
V0.90798
p5439
sa(dp5440
Vwebsite
p5441
Vhttp://www.number10.gov.uk/
p5442
sVyago
p5443
Vhttp://yago-knowledge.org/resource/Gordon_Brown
p5444
sVtext
p5445
VGordon Brown
p5446
sVdbpedia
p5447
Vhttp://dbpedia.org/resource/Gordon_Brown
p5448
sVfreebase
p5449
Vhttp://rdf.freebase.com/ns/m.03f77
p5450
sVrelevance
p5451
V0.905082
p5452
sa(dp5453
Vrelevance
p5454
V0.630841
p5455
sVtext
p5456
VHarold Wilson
p5457
sVyago
p5458
Vhttp://yago-knowledge.org/resource/Harold_Wilson
p5459
sVdbpedia
p5460
Vhttp://dbpedia.org/resource/Harold_Wilson
p5461
sVfreebase
p5462
Vhttp://rdf.freebase.com/ns/m.0dr9m
p5463
sa(dp5464
Vwebsite
p5465
Vhttp://www.labour.org.uk/
p5466
sVyago
p5467
Vhttp://yago-knowledge.org/resource/Labour_Party_(UK)
p5468
sVtext
p5469
VLabour Party
p5470
sVopencyc
p5471
Vhttp://sw.opencyc.org/concept/Mx4rW6JwMAu0EdeB_gCw0Hwy_g
p5472
sVdbpedia
p5473
Vhttp://dbpedia.org/resource/Labour_Party_(UK)
p5474
sVfreebase
p5475
Vhttp://rdf.freebase.com/ns/m.01c9x
p5476
sVrelevance
p5477
V0.625558
p5478
sasg629
(lp5479
(dp5480
Vrelevance
p5481
V0.999851
p5482
sVtext
p5483
Vchancellor John McDonnell
p5484
sa(dp5485
Vrelevance
p5486
V0.953234
p5487
sVtext
p5488
Vfuture Labour government
p5489
sa(dp5490
Vrelevance
p5491
V0.835351
p5492
sVtext
p5493
Vfiscal credibility
p5494
sa(dp5495
Vrelevance
p5496
V0.773856
p5497
sVtext
p5498
Vexternal linking
p5499
sa(dp5500
Vrelevance
p5501
V0.754686
p5502
sVtext
p5503
Vpublic spending
p5504
sa(dp5505
Vrelevance
p5506
V0.726043
p5507
sVtext
p5508
Vexternal sites
p5509
sa(dp5510
Vrelevance
p5511
V0.496424
p5512
sVtext
p5513
Vmainstream
p5514
sa(dp5515
Vrelevance
p5516
V0.493719
p5517
sVtext
p5518
Vlock
p5519
sa(dp5520
Vrelevance
p5521
V0.492842
p5522
sVtext
p5523
Vannouncement
p5524
sa(dp5525
Vrelevance
p5526
V0.487735
p5527
sVtext
p5528
Vshadow
p5529
sa(dp5530
Vrelevance
p5531
V0.476863
p5532
sVtext
p5533
VCopyright
p5534
sa(dp5535
Vrelevance
p5536
V0.457731
p5537
sVtext
p5538
VBBC
p5539
sa(dp5540
Vrelevance
p5541
V0.442626
p5542
sVtext
p5543
Vprogramme
p5544
sa(dp5545
Vrelevance
p5546
V0.437547
p5547
sVtext
p5548
Vapproach
p5549
sassg781
(lp5550
(dp5551
VfaceRectangle
p5552
(dp5553
Vwidth
p5554
I210
sVtop
p5555
I92
sVleft
p5556
I502
sVheight
p5557
I210
ssVscores
p5558
(dp5559
Vsadness
p5560
F0.000166983387
sVneutral
p5561
F0.25264444899999999
sVcontempt
p5562
F0.0038013435000000002
sVdisgust
p5563
F0.00014408244199999999
sVanger
p5564
F4.5178374400000003e-05
sVsurprise
p5565
F3.4758990000000003e-05
sVfear
p5566
F1.2592491900000001e-06
sVhappiness
p5567
F0.74316199999999999
ssasg817
(dp5568
g819
I11
sg820
I1
sg821
I31
sg822
I1067
sg823
I0
ssas.